
Optional file libmchp_peripheral.a not found

Optional file libmchp_peripheral_32MX320F128H.a not found
Archive member included because of file (symbol)

/opt/microchip/xc32/v1.44/bin/bin/../../lib/gcc/pic32mx/4.8.3/libgcc.a(floatunsisf.o)
                              build/default/production/_ext/1360937237/orient.o (__floatunsisf)
/opt/microchip/xc32/v1.44/bin/bin/../../lib/gcc/pic32mx/4.8.3/../../../../pic32mx/lib/libpic32.a(memset.o)
                              build/default/production/_ext/1871970537/drv_spi.o (memset)
/opt/microchip/xc32/v1.44/bin/bin/../../lib/gcc/pic32mx/4.8.3/../../../../pic32mx/lib/libpic32.a(default-bootstrap-exception-handler.o)
                              /opt/microchip/xc32/v1.44/bin/bin/../../lib/gcc/pic32mx/4.8.3/../../../../pic32mx/lib/./proc/32MX320F128H/crt0_mips32r2.o (_bootstrap_exception_handler)
/opt/microchip/xc32/v1.44/bin/bin/../../lib/gcc/pic32mx/4.8.3/../../../../pic32mx/lib/libpic32.a(default-on-reset.o)
                              /opt/microchip/xc32/v1.44/bin/bin/../../lib/gcc/pic32mx/4.8.3/../../../../pic32mx/lib/./proc/32MX320F128H/crt0_mips32r2.o (_on_reset)
/opt/microchip/xc32/v1.44/bin/bin/../../lib/gcc/pic32mx/4.8.3/../../../../pic32mx/lib/libpic32.a(default-on-bootstrap.o)
                              /opt/microchip/xc32/v1.44/bin/bin/../../lib/gcc/pic32mx/4.8.3/../../../../pic32mx/lib/./proc/32MX320F128H/crt0_mips32r2.o (_on_bootstrap)
/opt/microchip/xc32/v1.44/bin/bin/../../lib/gcc/pic32mx/4.8.3/../../../../pic32mx/lib/libpic32.a(default-nmi-handler.o)
                              /opt/microchip/xc32/v1.44/bin/bin/../../lib/gcc/pic32mx/4.8.3/../../../../pic32mx/lib/./proc/32MX320F128H/crt0_mips32r2.o (_nmi_handler)
/opt/microchip/xc32/v1.44/bin/bin/../../lib/gcc/pic32mx/4.8.3/../../../../pic32mx/lib/libpic32.a(general-exception.o)
                              /opt/microchip/xc32/v1.44/bin/bin/../../lib/gcc/pic32mx/4.8.3/../../../../pic32mx/lib/./proc/32MX320F128H/crt0_mips32r2.o (_general_exception_context)
/opt/microchip/xc32/v1.44/bin/bin/../../lib/gcc/pic32mx/4.8.3/../../../../pic32mx/lib/libpic32.a(vector0.o)
                              /opt/microchip/xc32/v1.44/bin/bin/../../lib/gcc/pic32mx/4.8.3/../../../../pic32mx/lib/./proc/32MX320F128H/default_isr_vectors.o (__vector_dispatch_0)
/opt/microchip/xc32/v1.44/bin/bin/../../lib/gcc/pic32mx/4.8.3/../../../../pic32mx/lib/libpic32.a(vector1.o)
                              /opt/microchip/xc32/v1.44/bin/bin/../../lib/gcc/pic32mx/4.8.3/../../../../pic32mx/lib/./proc/32MX320F128H/default_isr_vectors.o (__vector_dispatch_1)
/opt/microchip/xc32/v1.44/bin/bin/../../lib/gcc/pic32mx/4.8.3/../../../../pic32mx/lib/libpic32.a(vector2.o)
                              /opt/microchip/xc32/v1.44/bin/bin/../../lib/gcc/pic32mx/4.8.3/../../../../pic32mx/lib/./proc/32MX320F128H/default_isr_vectors.o (__vector_dispatch_2)
/opt/microchip/xc32/v1.44/bin/bin/../../lib/gcc/pic32mx/4.8.3/../../../../pic32mx/lib/libpic32.a(vector3.o)
                              /opt/microchip/xc32/v1.44/bin/bin/../../lib/gcc/pic32mx/4.8.3/../../../../pic32mx/lib/./proc/32MX320F128H/default_isr_vectors.o (__vector_dispatch_3)
/opt/microchip/xc32/v1.44/bin/bin/../../lib/gcc/pic32mx/4.8.3/../../../../pic32mx/lib/libpic32.a(vector4.o)
                              /opt/microchip/xc32/v1.44/bin/bin/../../lib/gcc/pic32mx/4.8.3/../../../../pic32mx/lib/./proc/32MX320F128H/default_isr_vectors.o (__vector_dispatch_4)
/opt/microchip/xc32/v1.44/bin/bin/../../lib/gcc/pic32mx/4.8.3/../../../../pic32mx/lib/libpic32.a(vector5.o)
                              /opt/microchip/xc32/v1.44/bin/bin/../../lib/gcc/pic32mx/4.8.3/../../../../pic32mx/lib/./proc/32MX320F128H/default_isr_vectors.o (__vector_dispatch_5)
/opt/microchip/xc32/v1.44/bin/bin/../../lib/gcc/pic32mx/4.8.3/../../../../pic32mx/lib/libpic32.a(vector7.o)
                              /opt/microchip/xc32/v1.44/bin/bin/../../lib/gcc/pic32mx/4.8.3/../../../../pic32mx/lib/./proc/32MX320F128H/default_isr_vectors.o (__vector_dispatch_7)
/opt/microchip/xc32/v1.44/bin/bin/../../lib/gcc/pic32mx/4.8.3/../../../../pic32mx/lib/libpic32.a(vector9.o)
                              /opt/microchip/xc32/v1.44/bin/bin/../../lib/gcc/pic32mx/4.8.3/../../../../pic32mx/lib/./proc/32MX320F128H/default_isr_vectors.o (__vector_dispatch_9)
/opt/microchip/xc32/v1.44/bin/bin/../../lib/gcc/pic32mx/4.8.3/../../../../pic32mx/lib/libpic32.a(vector11.o)
                              /opt/microchip/xc32/v1.44/bin/bin/../../lib/gcc/pic32mx/4.8.3/../../../../pic32mx/lib/./proc/32MX320F128H/default_isr_vectors.o (__vector_dispatch_11)
/opt/microchip/xc32/v1.44/bin/bin/../../lib/gcc/pic32mx/4.8.3/../../../../pic32mx/lib/libpic32.a(vector12.o)
                              /opt/microchip/xc32/v1.44/bin/bin/../../lib/gcc/pic32mx/4.8.3/../../../../pic32mx/lib/./proc/32MX320F128H/default_isr_vectors.o (__vector_dispatch_12)
/opt/microchip/xc32/v1.44/bin/bin/../../lib/gcc/pic32mx/4.8.3/../../../../pic32mx/lib/libpic32.a(vector13.o)
                              /opt/microchip/xc32/v1.44/bin/bin/../../lib/gcc/pic32mx/4.8.3/../../../../pic32mx/lib/./proc/32MX320F128H/default_isr_vectors.o (__vector_dispatch_13)
/opt/microchip/xc32/v1.44/bin/bin/../../lib/gcc/pic32mx/4.8.3/../../../../pic32mx/lib/libpic32.a(vector14.o)
                              /opt/microchip/xc32/v1.44/bin/bin/../../lib/gcc/pic32mx/4.8.3/../../../../pic32mx/lib/./proc/32MX320F128H/default_isr_vectors.o (__vector_dispatch_14)
/opt/microchip/xc32/v1.44/bin/bin/../../lib/gcc/pic32mx/4.8.3/../../../../pic32mx/lib/libpic32.a(vector15.o)
                              /opt/microchip/xc32/v1.44/bin/bin/../../lib/gcc/pic32mx/4.8.3/../../../../pic32mx/lib/./proc/32MX320F128H/default_isr_vectors.o (__vector_dispatch_15)
/opt/microchip/xc32/v1.44/bin/bin/../../lib/gcc/pic32mx/4.8.3/../../../../pic32mx/lib/libpic32.a(vector16.o)
                              /opt/microchip/xc32/v1.44/bin/bin/../../lib/gcc/pic32mx/4.8.3/../../../../pic32mx/lib/./proc/32MX320F128H/default_isr_vectors.o (__vector_dispatch_16)
/opt/microchip/xc32/v1.44/bin/bin/../../lib/gcc/pic32mx/4.8.3/../../../../pic32mx/lib/libpic32.a(vector17.o)
                              /opt/microchip/xc32/v1.44/bin/bin/../../lib/gcc/pic32mx/4.8.3/../../../../pic32mx/lib/./proc/32MX320F128H/default_isr_vectors.o (__vector_dispatch_17)
/opt/microchip/xc32/v1.44/bin/bin/../../lib/gcc/pic32mx/4.8.3/../../../../pic32mx/lib/libpic32.a(vector18.o)
                              /opt/microchip/xc32/v1.44/bin/bin/../../lib/gcc/pic32mx/4.8.3/../../../../pic32mx/lib/./proc/32MX320F128H/default_isr_vectors.o (__vector_dispatch_18)
/opt/microchip/xc32/v1.44/bin/bin/../../lib/gcc/pic32mx/4.8.3/../../../../pic32mx/lib/libpic32.a(vector19.o)
                              /opt/microchip/xc32/v1.44/bin/bin/../../lib/gcc/pic32mx/4.8.3/../../../../pic32mx/lib/./proc/32MX320F128H/default_isr_vectors.o (__vector_dispatch_19)
/opt/microchip/xc32/v1.44/bin/bin/../../lib/gcc/pic32mx/4.8.3/../../../../pic32mx/lib/libpic32.a(vector20.o)
                              /opt/microchip/xc32/v1.44/bin/bin/../../lib/gcc/pic32mx/4.8.3/../../../../pic32mx/lib/./proc/32MX320F128H/default_isr_vectors.o (__vector_dispatch_20)
/opt/microchip/xc32/v1.44/bin/bin/../../lib/gcc/pic32mx/4.8.3/../../../../pic32mx/lib/libpic32.a(vector21.o)
                              /opt/microchip/xc32/v1.44/bin/bin/../../lib/gcc/pic32mx/4.8.3/../../../../pic32mx/lib/./proc/32MX320F128H/default_isr_vectors.o (__vector_dispatch_21)
/opt/microchip/xc32/v1.44/bin/bin/../../lib/gcc/pic32mx/4.8.3/../../../../pic32mx/lib/libpic32.a(vector22.o)
                              /opt/microchip/xc32/v1.44/bin/bin/../../lib/gcc/pic32mx/4.8.3/../../../../pic32mx/lib/./proc/32MX320F128H/default_isr_vectors.o (__vector_dispatch_22)
/opt/microchip/xc32/v1.44/bin/bin/../../lib/gcc/pic32mx/4.8.3/../../../../pic32mx/lib/libpic32.a(vector23.o)
                              /opt/microchip/xc32/v1.44/bin/bin/../../lib/gcc/pic32mx/4.8.3/../../../../pic32mx/lib/./proc/32MX320F128H/default_isr_vectors.o (__vector_dispatch_23)
/opt/microchip/xc32/v1.44/bin/bin/../../lib/gcc/pic32mx/4.8.3/../../../../pic32mx/lib/libpic32.a(vector26.o)
                              /opt/microchip/xc32/v1.44/bin/bin/../../lib/gcc/pic32mx/4.8.3/../../../../pic32mx/lib/./proc/32MX320F128H/default_isr_vectors.o (__vector_dispatch_26)
/opt/microchip/xc32/v1.44/bin/bin/../../lib/gcc/pic32mx/4.8.3/../../../../pic32mx/lib/libpic32.a(vector27.o)
                              /opt/microchip/xc32/v1.44/bin/bin/../../lib/gcc/pic32mx/4.8.3/../../../../pic32mx/lib/./proc/32MX320F128H/default_isr_vectors.o (__vector_dispatch_27)
/opt/microchip/xc32/v1.44/bin/bin/../../lib/gcc/pic32mx/4.8.3/../../../../pic32mx/lib/libpic32.a(vector28.o)
                              /opt/microchip/xc32/v1.44/bin/bin/../../lib/gcc/pic32mx/4.8.3/../../../../pic32mx/lib/./proc/32MX320F128H/default_isr_vectors.o (__vector_dispatch_28)
/opt/microchip/xc32/v1.44/bin/bin/../../lib/gcc/pic32mx/4.8.3/../../../../pic32mx/lib/libpic32.a(vector29.o)
                              /opt/microchip/xc32/v1.44/bin/bin/../../lib/gcc/pic32mx/4.8.3/../../../../pic32mx/lib/./proc/32MX320F128H/default_isr_vectors.o (__vector_dispatch_29)
/opt/microchip/xc32/v1.44/bin/bin/../../lib/gcc/pic32mx/4.8.3/../../../../pic32mx/lib/libpic32.a(vector30.o)
                              /opt/microchip/xc32/v1.44/bin/bin/../../lib/gcc/pic32mx/4.8.3/../../../../pic32mx/lib/./proc/32MX320F128H/default_isr_vectors.o (__vector_dispatch_30)
/opt/microchip/xc32/v1.44/bin/bin/../../lib/gcc/pic32mx/4.8.3/../../../../pic32mx/lib/libpic32.a(vector32.o)
                              /opt/microchip/xc32/v1.44/bin/bin/../../lib/gcc/pic32mx/4.8.3/../../../../pic32mx/lib/./proc/32MX320F128H/default_isr_vectors.o (__vector_dispatch_32)
/opt/microchip/xc32/v1.44/bin/bin/../../lib/gcc/pic32mx/4.8.3/../../../../pic32mx/lib/libpic32.a(vector33.o)
                              /opt/microchip/xc32/v1.44/bin/bin/../../lib/gcc/pic32mx/4.8.3/../../../../pic32mx/lib/./proc/32MX320F128H/default_isr_vectors.o (__vector_dispatch_33)
/opt/microchip/xc32/v1.44/bin/bin/../../lib/gcc/pic32mx/4.8.3/../../../../pic32mx/lib/libpic32.a(vector34.o)
                              /opt/microchip/xc32/v1.44/bin/bin/../../lib/gcc/pic32mx/4.8.3/../../../../pic32mx/lib/./proc/32MX320F128H/default_isr_vectors.o (__vector_dispatch_34)
/opt/microchip/xc32/v1.44/bin/bin/../../lib/gcc/pic32mx/4.8.3/../../../../pic32mx/lib/libpic32.a(vector35.o)
                              /opt/microchip/xc32/v1.44/bin/bin/../../lib/gcc/pic32mx/4.8.3/../../../../pic32mx/lib/./proc/32MX320F128H/default_isr_vectors.o (__vector_dispatch_35)
/opt/microchip/xc32/v1.44/bin/bin/../../lib/gcc/pic32mx/4.8.3/../../../../pic32mx/lib/libpic32.a(vector36.o)
                              /opt/microchip/xc32/v1.44/bin/bin/../../lib/gcc/pic32mx/4.8.3/../../../../pic32mx/lib/./proc/32MX320F128H/default_isr_vectors.o (__vector_dispatch_36)
/opt/microchip/xc32/v1.44/bin/bin/../../lib/gcc/pic32mx/4.8.3/../../../../pic32mx/lib/libpic32.a(vector37.o)
                              /opt/microchip/xc32/v1.44/bin/bin/../../lib/gcc/pic32mx/4.8.3/../../../../pic32mx/lib/./proc/32MX320F128H/default_isr_vectors.o (__vector_dispatch_37)
/opt/microchip/xc32/v1.44/bin/bin/../../lib/gcc/pic32mx/4.8.3/../../../../pic32mx/lib/libpic32.a(vector38.o)
                              /opt/microchip/xc32/v1.44/bin/bin/../../lib/gcc/pic32mx/4.8.3/../../../../pic32mx/lib/./proc/32MX320F128H/default_isr_vectors.o (__vector_dispatch_38)
/opt/microchip/xc32/v1.44/bin/bin/../../lib/gcc/pic32mx/4.8.3/../../../../pic32mx/lib/libpic32.a(vector39.o)
                              /opt/microchip/xc32/v1.44/bin/bin/../../lib/gcc/pic32mx/4.8.3/../../../../pic32mx/lib/./proc/32MX320F128H/default_isr_vectors.o (__vector_dispatch_39)
/opt/microchip/xc32/v1.44/bin/bin/../../lib/gcc/pic32mx/4.8.3/../../../../pic32mx/lib/libpic32.a(vector40.o)
                              /opt/microchip/xc32/v1.44/bin/bin/../../lib/gcc/pic32mx/4.8.3/../../../../pic32mx/lib/./proc/32MX320F128H/default_isr_vectors.o (__vector_dispatch_40)
/opt/microchip/xc32/v1.44/bin/bin/../../lib/gcc/pic32mx/4.8.3/../../../../pic32mx/lib/libpic32.a(vector41.o)
                              /opt/microchip/xc32/v1.44/bin/bin/../../lib/gcc/pic32mx/4.8.3/../../../../pic32mx/lib/./proc/32MX320F128H/default_isr_vectors.o (__vector_dispatch_41)
/opt/microchip/xc32/v1.44/bin/bin/../../lib/gcc/pic32mx/4.8.3/../../../../pic32mx/lib/libpic32.a(vector42.o)
                              /opt/microchip/xc32/v1.44/bin/bin/../../lib/gcc/pic32mx/4.8.3/../../../../pic32mx/lib/./proc/32MX320F128H/default_isr_vectors.o (__vector_dispatch_42)
/opt/microchip/xc32/v1.44/bin/bin/../../lib/gcc/pic32mx/4.8.3/../../../../pic32mx/lib/libpic32.a(vector43.o)
                              /opt/microchip/xc32/v1.44/bin/bin/../../lib/gcc/pic32mx/4.8.3/../../../../pic32mx/lib/./proc/32MX320F128H/default_isr_vectors.o (__vector_dispatch_43)
/opt/microchip/xc32/v1.44/bin/bin/../../lib/gcc/pic32mx/4.8.3/../../../../pic32mx/lib/libpic32.a(vector44.o)
                              /opt/microchip/xc32/v1.44/bin/bin/../../lib/gcc/pic32mx/4.8.3/../../../../pic32mx/lib/./proc/32MX320F128H/default_isr_vectors.o (__vector_dispatch_44)
/opt/microchip/xc32/v1.44/bin/bin/../../lib/gcc/pic32mx/4.8.3/../../../../pic32mx/lib/libpic32.a(defaultinterrupt.o)
                              /opt/microchip/xc32/v1.44/bin/bin/../../lib/gcc/pic32mx/4.8.3/../../../../pic32mx/lib/libpic32.a(vector0.o) (_DefaultInterrupt)
/opt/microchip/xc32/v1.44/bin/bin/../../lib/gcc/pic32mx/4.8.3/../../../../pic32mx/lib/libc.a(sprintf_cdnopsuxX.eo)
                              build/default/production/_ext/1360937237/orient.o (_sprintf_cdnopsuxX)
/opt/microchip/xc32/v1.44/bin/bin/../../lib/gcc/pic32mx/4.8.3/../../../../pic32mx/lib/libc.a(sprintf_cdnopuxX.eo)
                              build/default/production/_ext/1360937237/bioshield.o (_sprintf_cdnopuxX)
/opt/microchip/xc32/v1.44/bin/bin/../../lib/gcc/pic32mx/4.8.3/../../../../pic32mx/lib/libc.a(doprnt_cdnopsuxX.eo)
                              /opt/microchip/xc32/v1.44/bin/bin/../../lib/gcc/pic32mx/4.8.3/../../../../pic32mx/lib/libc.a(sprintf_cdnopsuxX.eo) (_vfprintf_cdnopsuxX)
/opt/microchip/xc32/v1.44/bin/bin/../../lib/gcc/pic32mx/4.8.3/../../../../pic32mx/lib/libc.a(doprnt_cdnopuxX.eo)
                              /opt/microchip/xc32/v1.44/bin/bin/../../lib/gcc/pic32mx/4.8.3/../../../../pic32mx/lib/libc.a(sprintf_cdnopuxX.eo) (_vfprintf_cdnopuxX)
/opt/microchip/xc32/v1.44/bin/bin/../../lib/gcc/pic32mx/4.8.3/../../../../pic32mx/lib/libc.a(_fputc_simple.o)
                              /opt/microchip/xc32/v1.44/bin/bin/../../lib/gcc/pic32mx/4.8.3/../../../../pic32mx/lib/libc.a(doprnt_cdnopsuxX.eo) (fputc)
/opt/microchip/xc32/v1.44/bin/bin/../../lib/gcc/pic32mx/4.8.3/../../../../pic32mx/lib/libc.a(ctype.o)
                              /opt/microchip/xc32/v1.44/bin/bin/../../lib/gcc/pic32mx/4.8.3/../../../../pic32mx/lib/libc.a(doprnt_cdnopsuxX.eo) (_ctype)
/opt/microchip/xc32/v1.44/bin/bin/../../lib/gcc/pic32mx/4.8.3/../../../../pic32mx/lib/libc.a(_iob.o)
                              /opt/microchip/xc32/v1.44/bin/bin/../../lib/gcc/pic32mx/4.8.3/../../../../pic32mx/lib/libc.a(_fputc_simple.o) (_outdone)
/opt/microchip/xc32/v1.44/bin/bin/../../lib/gcc/pic32mx/4.8.3/../../../../pic32mx/lib/libc.a(_flsbuf_simple.o)
                              /opt/microchip/xc32/v1.44/bin/bin/../../lib/gcc/pic32mx/4.8.3/../../../../pic32mx/lib/libc.a(_fputc_simple.o) (_flsbuf)
/opt/microchip/xc32/v1.44/bin/bin/../../lib/gcc/pic32mx/4.8.3/../../../../pic32mx/lib/libm.a(fp32div.o)
                              build/default/production/_ext/1360937237/orient.o (fpdiv)
/opt/microchip/xc32/v1.44/bin/bin/../../lib/gcc/pic32mx/4.8.3/../../../../pic32mx/lib/libm.a(fp32mul.o)
                              build/default/production/_ext/1360937237/orient.o (fpmul)
/opt/microchip/xc32/v1.44/bin/bin/../../lib/gcc/pic32mx/4.8.3/../../../../pic32mx/lib/libm.a(fp32subadd.o)
                              build/default/production/_ext/1360937237/orient.o (fpsub)
/opt/microchip/xc32/v1.44/bin/bin/../../lib/gcc/pic32mx/4.8.3/../../../../pic32mx/lib/libm.a(fptoul.o)
                              build/default/production/_ext/1360937237/orient.o (fptoui)
/opt/microchip/xc32/v1.44/bin/bin/../../lib/gcc/pic32mx/4.8.3/../../../../pic32mx/lib/libm.a(sitofp.o)
                              /opt/microchip/xc32/v1.44/bin/bin/../../lib/gcc/pic32mx/4.8.3/libgcc.a(floatunsisf.o) (sitofp)
/opt/microchip/xc32/v1.44/bin/bin/../../lib/gcc/pic32mx/4.8.3/libgcc.a(_udivdi3.o)
                              /opt/microchip/xc32/v1.44/bin/bin/../../lib/gcc/pic32mx/4.8.3/../../../../pic32mx/lib/libc.a(doprnt_cdnopsuxX.eo) (__udivdi3)
/opt/microchip/xc32/v1.44/bin/bin/../../lib/gcc/pic32mx/4.8.3/libgcc.a(_umoddi3.o)
                              /opt/microchip/xc32/v1.44/bin/bin/../../lib/gcc/pic32mx/4.8.3/../../../../pic32mx/lib/libc.a(doprnt_cdnopsuxX.eo) (__umoddi3)
/opt/microchip/xc32/v1.44/bin/bin/../../lib/gcc/pic32mx/4.8.3/../../../../pic32mx/lib/libpic32.a(write.o)
                              /opt/microchip/xc32/v1.44/bin/bin/../../lib/gcc/pic32mx/4.8.3/../../../../pic32mx/lib/libc.a(_fputc_simple.o) (write)
/opt/microchip/xc32/v1.44/bin/bin/../../lib/gcc/pic32mx/4.8.3/../../../../pic32mx/lib/libpic32.a(_mon_putc.o)
                              /opt/microchip/xc32/v1.44/bin/bin/../../lib/gcc/pic32mx/4.8.3/../../../../pic32mx/lib/libpic32.a(write.o) (_mon_putc)
/opt/microchip/xc32/v1.44/bin/bin/../../lib/gcc/pic32mx/4.8.3/../../../../pic32mx/lib/libpic32.a(xc32_uart.o)
                              /opt/microchip/xc32/v1.44/bin/bin/../../lib/gcc/pic32mx/4.8.3/../../../../pic32mx/lib/libpic32.a(_mon_putc.o) (__XC_UART)

Allocating common symbols
Common symbol       size              file

ycoOledCur          0x4               build/default/production/OledDriver.o
rgbOledBmp          0x200             build/default/production/OledDriver.o
xchOledMax          0x4               build/default/production/OledChar.o
xcoOledCur          0x4               build/default/production/OledDriver.o
xchOledCur          0x4               build/default/production/OledChar.o
ychOledCur          0x4               build/default/production/OledChar.o
clkObject           0x38              build/default/production/_ext/639803181/sys_clk.o
pbOledCur           0x4               build/default/production/OledDriver.o
pbOledPatCur        0x4               build/default/production/OledDriver.o
pbOledFontCur       0x4               build/default/production/OledDriver.o
gDrvI2CCommonDataObj
                    0x3               build/default/production/_ext/1022305019/drv_i2c.o
rgbOledFontUser     0x100             build/default/production/OledChar.o
appData             0x4               build/default/production/_ext/1360937237/app.o
sysObj              0x10              build/default/production/_ext/1688732426/system_init.o
pbOledFontExt       0x4               build/default/production/OledChar.o
dycoOledFontCur     0x4               build/default/production/OledDriver.o
ychOledMax          0x4               build/default/production/OledChar.o
modOledCur          0x4               build/default/production/OledGrph.o
gDrvUSARTCommonDataObj
                    0x3               build/default/production/_ext/1590698352/drv_usart.o
dxcoOledFontCur     0x4               build/default/production/OledDriver.o
fOledCharUpdate     0x4               build/default/production/OledDriver.o
gDrvUSARTClientObj  0x4c              build/default/production/_ext/1590698352/drv_usart.o
gDrvUSARTObj        0x60              build/default/production/_ext/1590698352/drv_usart.o
clrOledCur          0x1               build/default/production/OledDriver.o
pbOledFontUser      0x4               build/default/production/OledDriver.o
sysDevconObj        0x8               build/default/production/_ext/340578644/sys_devcon.o
bnOledCur           0x4               build/default/production/OledDriver.o
pfnDoRop            0x4               build/default/production/OledGrph.o

Microchip PIC32 Memory-Usage Report

kseg0 Program-Memory Usage
section                    address  length [bytes]      (dec)  Description
-------                 ----------  -------------------------  -----------
.text._vfprintf_cdnopsu 0x9d000000          0xc8c        3212   
.text.DRV_I2C_Tasks     0x9d000c8c          0x9c8        2504   
.text                   0x9d001654          0x8bc        2236  App's exec code 
.text.orienter_motor_ch 0x9d001f10          0x428        1064   
.text.DRV_SPI_ISRMaster 0x9d002338          0x378         888   
.text.DRV_I2C_Initializ 0x9d0026b0          0x348         840   
.rodata                 0x9d0029f8          0x300         768  Read-only const 
.text.DRV_SPI_SetupHard 0x9d002cf8          0x27c         636   
.text.DRV_SPI_Initializ 0x9d002f74          0x27c         636   
.text.fpsubadd          0x9d0031f0          0x278         632   
.text.DRV_SPI_Open      0x9d003468          0x260         608   
.text.fp32div           0x9d0036c8          0x230         560   
.text.DRV_SPI_BufferAdd 0x9d0038f8          0x210         528   
.dinit                  0x9d003b08          0x1f0         496   
.text.board_test        0x9d003cf8          0x1e4         484   
.text.DRV_SPI_SYS_QUEUE 0x9d003edc          0x1d8         472   
.text._DRV_USART_Hardwa 0x9d0040b4          0x1cc         460   
.text.fp32mul           0x9d004280          0x1bc         444   
.text.DRV_USART_Initial 0x9d00443c          0x19c         412   
.text.OledLineTo        0x9d0045d8          0x164         356   
.text.SYS_Initialize    0x9d00473c          0x154         340   
.text.lp_filter         0x9d004890          0x154         340   
.text._IntHandlerDrvUsa 0x9d0049e4          0x150         336   
.text.fputc             0x9d004b34          0x144         324   
.text._IntHandlerSPIIns 0x9d004c78          0x134         308   
.text._IntHandlerDrvI2C 0x9d004dac          0x134         308   
.text._flsbuf           0x9d004ee0          0x12c         300   
.rodata                 0x9d00500c          0x128         296  Read-only const 
.text.DRV_SPI_SYS_QUEUE 0x9d005134          0x108         264   
.rodata                 0x9d00523c          0x104         260  Read-only const 
.text.APP_Tasks         0x9d005340           0xe8         232   
.text.SYS_DEVCON_Perfor 0x9d005428           0xe0         224   
.text.general_exception 0x9d005508           0xdc         220   
.text.DRV_SPI_ISRErrorT 0x9d0055e4           0xd4         212   
.text._mon_putc         0x9d0056b8           0xd4         212   
.rodata                 0x9d005790           0xd0         208  Read-only const 
.text.DRV_SPI_SYS_QUEUE 0x9d005860           0xc0         192   
.text.OledDevInit       0x9d005920           0xb4         180   
.text.SYS_PORTS_Initial 0x9d0059d4           0xb0         176   
.text.OledUpdate        0x9d005a84           0xac         172   
.text                   0x9d005b30           0xa8         168  App's exec code 
.text.DRV_USART_TasksTr 0x9d005bd8           0xa4         164   
.text.DRV_USART_TasksRe 0x9d005c7c           0xa4         164   
.text.DRV_USART_TasksEr 0x9d005d20           0xa4         164   
.text._DRV_I2C_QueuePop 0x9d005dc4           0x9c         156   
.text._DRV_USART_ErrorC 0x9d005e60           0x9c         156   
.text.write             0x9d005efc           0x9c         156   
.text.DRV_SPI_MasterRMS 0x9d005f98           0x94         148   
.rodata                 0x9d00602c           0x94         148  Read-only const 
.text.OledDvrInit       0x9d0060c0           0x90         144   
.text.DRV_OC0_Initializ 0x9d006150           0x8c         140   
.text.DRV_OC1_Initializ 0x9d0061dc           0x8c         140   
.text.OledSetDrawMode   0x9d006268           0x88         136   
.text.IntHandlerDrvTmrI 0x9d0062f0           0x88         136   
.text._IntHandlerDrvOCI 0x9d006378           0x88         136   
.text._IntHandlerDrvOCI 0x9d006400           0x88         136   
.text._DRV_USART_ByteTr 0x9d006488           0x88         136   
.text._DRV_USART_ByteEr 0x9d006510           0x88         136   
.text.OledDrawRect      0x9d006598           0x84         132   
.text.OledHostInit      0x9d00661c           0x80         128   
.text._DRV_SPI_SYS_QUEU 0x9d00669c           0x80         128   
.text.fptoul            0x9d00671c           0x7c         124   
.text.OledMoveTo        0x9d006798           0x74         116   
.text.DRV_SPI_MasterRMR 0x9d00680c           0x74         116   
.text.DRV_SPI_SYS_QUEUE 0x9d006880           0x74         116   
.text.DRV_TMR0_Initiali 0x9d0068f4           0x70         112   
.text._DRV_USART_ByteRe 0x9d006964           0x70         112   
.text.OledDrawGlyph     0x9d0069d4           0x68         104   
.text.DRV_SPI_SetVTable 0x9d006a3c           0x68         104   
.text._DRV_SPI_SYS_QUEU 0x9d006aa4           0x68         104   
.text._sprintf_cdnopsux 0x9d006b0c           0x68         104   
.text.OledAdvanceCursor 0x9d006b74           0x60          96   
.text.DRV_SPI_SYS_QUEUE 0x9d006bd4           0x60          96   
.text.DRV_SPI_SYS_QUEUE 0x9d006c34           0x60          96   
.text.sitofp            0x9d006c94           0x60          96   
.text.SYS_CLK_Initializ 0x9d006cf4           0x5c          92   
.text.OledPutString     0x9d006d50           0x58          88   
.text.SYS_DEVCON_System 0x9d006da8           0x58          88   
.text.DRV_SPI_SYS_QUEUE 0x9d006e00           0x58          88   
.text.main_entry        0x9d006e58           0x54          84   
.text.SYS_INT_SourceDis 0x9d006eac           0x54          84   
.text.OledSetCursor     0x9d006f00           0x50          80   
.text.OledDrawPixel     0x9d006f50           0x4c          76   
.rodata                 0x9d006f9c           0x4c          76  Read-only const 
.text                   0x9d006fe8           0x4c          76  App's exec code 
.text.SYS_DEVCON_System 0x9d007034           0x48          72   
.text._bootstrap_except 0x9d00707c           0x48          72   
.vector_default         0x9d0070c4           0x48          72   
.rodata                 0x9d00710c           0x44          68  Read-only const 
.text                   0x9d007150           0x44          68  App's exec code 
.rodata                 0x9d007194           0x40          64  Read-only const 
.text.OledMoveUp        0x9d0071d4           0x40          64   
.text.OledMoveDown      0x9d007214           0x40          64   
.text._general_exceptio 0x9d007254           0x40          64   
.text.DRV_SPI_SYS_QUEUE 0x9d007294           0x40          64   
.text._DRV_I2C_IsQueueE 0x9d0072d4           0x3c          60   
.text.DRV_TMR0_Start    0x9d007310           0x38          56   
.text.BSP_DelayUs       0x9d007348           0x34          52   
.text.OledInit          0x9d00737c           0x34          52   
.text._DRV_I2C_Advance_ 0x9d0073b0           0x30          48   
.text.OledMoveRight     0x9d0073e0           0x2c          44   
.text.OledPutBuffer     0x9d00740c           0x28          40   
.text.OledMoveLeft      0x9d007434           0x28          40   
.text._DRV_SPI_RootDriv 0x9d00745c           0x28          40   
.text.OledClearBuffer   0x9d007484           0x24          36   
.text.OledClear         0x9d0074a8           0x24          36   
.text.DRV_SPI_BufferAdd 0x9d0074cc           0x24          36   
.text.SYS_CLK_Periphera 0x9d0074f0           0x20          32   
.text.main              0x9d007510           0x20          32   
.text.DRV_SPI_Tasks     0x9d007530           0x20          32   
.text.SYS_Tasks         0x9d007550           0x1c          28   
.text.APP_Initialize    0x9d00756c           0x1c          28   
.text.BasicIO_Initializ 0x9d007588           0x1c          28   
.text.OledClampXco      0x9d0075a4           0x18          24   
.text.OledClampYco      0x9d0075bc           0x18          24   
.text.SYS_DEVCON_JTAGDi 0x9d0075d4           0x18          24   
.text                   0x9d0075ec           0x18          24  App's exec code 
.rodata                 0x9d007604           0x14          20  Read-only const 
.text.OledRopSet        0x9d007618           0x14          20   
.text.DRV_OC0_Start     0x9d00762c           0x14          20   
.text.DRV_OC0_PulseWidt 0x9d007640           0x14          20   
.text.DRV_OC1_Start     0x9d007654           0x14          20   
.text.DRV_OC1_PulseWidt 0x9d007668           0x14          20   
.text.DRV_TMR0_PeriodVa 0x9d00767c           0x14          20   
.text.SYS_DEVCON_Initia 0x9d007690           0x14          20   
.text.SYS_INT_Initializ 0x9d0076a4           0x14          20   
.text.OledRopOr         0x9d0076b8            0xc          12   
.text.OledRopAnd        0x9d0076c4            0xc          12   
.text.OledRopXor        0x9d0076d0            0xc          12   
.text.SYS_CLK_SystemFre 0x9d0076dc            0xc          12   
.text._SYS_CLK_Peripher 0x9d0076e8            0xc          12   
.text.DRV_SPI_SYS_QUEUE 0x9d0076f4            0xc          12   
.text.DRV_SPI_SYS_QUEUE 0x9d007700            0x8           8   
.text._on_reset         0x9d007708            0x8           8   
.text._on_bootstrap     0x9d007710            0x8           8   
      Total kseg0_program_mem used  :      0x7714       30484  23.3% of 0x20000

kseg0 Boot-Memory Usage
section                    address  length [bytes]      (dec)  Description
-------                 ----------  -------------------------  -----------
         Total kseg0_boot_mem used  :           0           0  <1% of 0x970

Exception-Memory Usage 
section                    address  length [bytes]      (dec)  Description
-------                 ----------  -------------------------  -----------
.app_excpt              0x9fc01180           0x10          16  General-Exception 
.vector_0               0x9fc01200            0x8           8  Interrupt Vector 0 
.vector_1               0x9fc01220            0x8           8  Interrupt Vector 1 
.vector_2               0x9fc01240            0x8           8  Interrupt Vector 2 
.vector_3               0x9fc01260            0x8           8  Interrupt Vector 3 
.vector_4               0x9fc01280            0x8           8  Interrupt Vector 4 
.vector_5               0x9fc012a0            0x8           8  Interrupt Vector 5 
.vector_6               0x9fc012c0            0x8           8  Interrupt Vector 6 
.vector_7               0x9fc012e0            0x8           8  Interrupt Vector 7 
.vector_8               0x9fc01300            0x8           8  Interrupt Vector 8 
.vector_9               0x9fc01320            0x8           8  Interrupt Vector 9 
.vector_10              0x9fc01340            0x8           8  Interrupt Vector 10 
.vector_11              0x9fc01360            0x8           8  Interrupt Vector 11 
.vector_12              0x9fc01380            0x8           8  Interrupt Vector 12 
.vector_13              0x9fc013a0            0x8           8  Interrupt Vector 13 
.vector_14              0x9fc013c0            0x8           8  Interrupt Vector 14 
.vector_15              0x9fc013e0            0x8           8  Interrupt Vector 15 
.vector_16              0x9fc01400            0x8           8  Interrupt Vector 16 
.vector_17              0x9fc01420            0x8           8  Interrupt Vector 17 
.vector_18              0x9fc01440            0x8           8  Interrupt Vector 18 
.vector_19              0x9fc01460            0x8           8  Interrupt Vector 19 
.vector_20              0x9fc01480            0x8           8  Interrupt Vector 20 
.vector_21              0x9fc014a0            0x8           8  Interrupt Vector 21 
.vector_22              0x9fc014c0            0x8           8  Interrupt Vector 22 
.vector_23              0x9fc014e0            0x8           8  Interrupt Vector 23 
.vector_24              0x9fc01500            0x8           8  Interrupt Vector 24 
.vector_25              0x9fc01520            0x8           8  Interrupt Vector 25 
.vector_26              0x9fc01540            0x8           8  Interrupt Vector 26 
.vector_27              0x9fc01560            0x8           8  Interrupt Vector 27 
.vector_28              0x9fc01580            0x8           8  Interrupt Vector 28 
.vector_29              0x9fc015a0            0x8           8  Interrupt Vector 29 
.vector_30              0x9fc015c0            0x8           8  Interrupt Vector 30 
.vector_31              0x9fc015e0            0x8           8  Interrupt Vector 31 
.vector_32              0x9fc01600            0x8           8  Interrupt Vector 32 
.vector_33              0x9fc01620            0x8           8  Interrupt Vector 33 
.vector_34              0x9fc01640            0x8           8  Interrupt Vector 34 
.vector_35              0x9fc01660            0x8           8  Interrupt Vector 35 
.vector_36              0x9fc01680            0x8           8  Interrupt Vector 36 
.vector_37              0x9fc016a0            0x8           8  Interrupt Vector 37 
.vector_38              0x9fc016c0            0x8           8  Interrupt Vector 38 
.vector_39              0x9fc016e0            0x8           8  Interrupt Vector 39 
.vector_40              0x9fc01700            0x8           8  Interrupt Vector 40 
.vector_41              0x9fc01720            0x8           8  Interrupt Vector 41 
.vector_42              0x9fc01740            0x8           8  Interrupt Vector 42 
.vector_43              0x9fc01760            0x8           8  Interrupt Vector 43 
.vector_44              0x9fc01780            0x8           8  Interrupt Vector 44 
          Total exception_mem used  :       0x178         376  9.2% of 0x1000

kseg1 Boot-Memory Usage
section                    address  length [bytes]      (dec)  Description
-------                 ----------  -------------------------  -----------
.reset                  0xbfc00000          0x208         520  Reset handler 
.bev_excpt              0xbfc00380           0x10          16  BEV-Exception 
         Total kseg1_boot_mem used  :       0x218         536  45.9% of 0x490
        --------------------------------------------------------------------------
         Total Program Memory used  :      0x7aa4       31396  22.6% of 0x21e00
        --------------------------------------------------------------------------


kseg1 Data-Memory Usage
section                    address  length [bytes]      (dec)  Description
-------                 ----------  -------------------------  -----------
.sdata                  0xa0000000           0x14          20  Small init data 
.sbss                   0xa0000014           0x8c         140  Small uninit data 
.bss                    0xa00000a0          0x3f4        1012  Uninitialized data 
.bss                    0xa0000494          0x588        1416  Uninitialized data 
.data                   0xa0000a1c           0x80         128  Initialized data 
.bss                    0xa0000a9c           0x44          68  Uninitialized data 
.data                   0xa0000ae0           0x28          40  Initialized data 
.bss                    0xa0000b08           0x20          32  Uninitialized data 
.data                   0xa0000b28           0x18          24  Initialized data 
         Total kseg1_data_mem used  :       0xb40        2880  17.6% of 0x4000
        --------------------------------------------------------------------------
            Total Data Memory used  :       0xb40        2880  17.6% of 0x4000
        --------------------------------------------------------------------------


Dynamic Data-Memory Reservation
section                    address  length [bytes]      (dec)  Description
-------                 ----------  -------------------------  -----------
heap                    0xa0000b48              0           0  Reserved for heap 
stack                   0xa0000b60         0x3498       13464  Reserved for stack 

        --------------------------------------------------------------------------

Discarded input sections

 .text          0x00000000        0x0 /opt/microchip/xc32/v1.44/bin/bin/../../lib/gcc/pic32mx/4.8.3/../../../../pic32mx/lib/./proc/32MX320F128H/crt0_mips32r2.o
 .data          0x00000000        0x0 /opt/microchip/xc32/v1.44/bin/bin/../../lib/gcc/pic32mx/4.8.3/../../../../pic32mx/lib/./proc/32MX320F128H/crt0_mips32r2.o
 .bss           0x00000000        0x0 /opt/microchip/xc32/v1.44/bin/bin/../../lib/gcc/pic32mx/4.8.3/../../../../pic32mx/lib/./proc/32MX320F128H/crt0_mips32r2.o
 .text          0x00000000        0x0 /opt/microchip/xc32/v1.44/bin/bin/../../lib/gcc/pic32mx/4.8.3/../../../../pic32mx/lib/debug-exception-return.o
 .data          0x00000000        0x0 /opt/microchip/xc32/v1.44/bin/bin/../../lib/gcc/pic32mx/4.8.3/../../../../pic32mx/lib/debug-exception-return.o
 .bss           0x00000000        0x0 /opt/microchip/xc32/v1.44/bin/bin/../../lib/gcc/pic32mx/4.8.3/../../../../pic32mx/lib/debug-exception-return.o
 .reginfo       0x00000000       0x18 /opt/microchip/xc32/v1.44/bin/bin/../../lib/gcc/pic32mx/4.8.3/../../../../pic32mx/lib/debug-exception-return.o
 .text          0x00000000        0x0 build/default/production/ChrFont0.o
 .data          0x00000000        0x0 build/default/production/ChrFont0.o
 .bss           0x00000000        0x0 build/default/production/ChrFont0.o
 .reginfo       0x00000000       0x18 build/default/production/ChrFont0.o
 .text          0x00000000        0x0 build/default/production/FillPat.o
 .data          0x00000000        0x0 build/default/production/FillPat.o
 .bss           0x00000000        0x0 build/default/production/FillPat.o
 .reginfo       0x00000000       0x18 build/default/production/FillPat.o
 .text          0x00000000        0x0 build/default/production/OledChar.o
 .data          0x00000000        0x0 build/default/production/OledChar.o
 .bss           0x00000000        0x0 build/default/production/OledChar.o
 .reginfo       0x00000000       0x18 build/default/production/OledChar.o
 .text.OledGetCursor
                0x00000000       0x14 build/default/production/OledChar.o
 .text.OledDefUserChar
                0x00000000       0x3c build/default/production/OledChar.o
 .text.OledSetCharUpdate
                0x00000000        0xc build/default/production/OledChar.o
 .text.OledGetCharUpdate
                0x00000000        0x8 build/default/production/OledChar.o
 .text.OledPutChar
                0x00000000       0x38 build/default/production/OledChar.o
 .text          0x00000000        0x0 build/default/production/OledDriver.o
 .data          0x00000000        0x0 build/default/production/OledDriver.o
 .bss           0x00000000        0x0 build/default/production/OledDriver.o
 .reginfo       0x00000000       0x18 build/default/production/OledDriver.o
 .text.DelayMs  0x00000000       0x2c build/default/production/OledDriver.o
 .text.OledHostTerm
                0x00000000        0x8 build/default/production/OledDriver.o
 .text.OledDevTerm
                0x00000000       0x78 build/default/production/OledDriver.o
 .text.OledTerm
                0x00000000       0x1c build/default/production/OledDriver.o
 .text.OledDisplayOn
                0x00000000       0x40 build/default/production/OledDriver.o
 .text.OledDisplayOff
                0x00000000       0x40 build/default/production/OledDriver.o
 .text          0x00000000        0x0 build/default/production/OledGrph.o
 .data          0x00000000        0x0 build/default/production/OledGrph.o
 .bss           0x00000000        0x0 build/default/production/OledGrph.o
 .reginfo       0x00000000       0x18 build/default/production/OledGrph.o
 .text.OledGetPos
                0x00000000       0x14 build/default/production/OledGrph.o
 .text.OledSetDrawColor
                0x00000000        0xc build/default/production/OledGrph.o
 .text.OledGetStdPattern
                0x00000000       0x14 build/default/production/OledGrph.o
 .text.OledSetFillPattern
                0x00000000        0x8 build/default/production/OledGrph.o
 .text.OledGetDrawMode
                0x00000000        0x8 build/default/production/OledGrph.o
 .text.OledGetPixel
                0x00000000       0x18 build/default/production/OledGrph.o
 .text.OledGetBmp
                0x00000000      0x168 build/default/production/OledGrph.o
 .text.OledPutBmp
                0x00000000      0x270 build/default/production/OledGrph.o
 .text.OledDrawChar
                0x00000000       0x60 build/default/production/OledGrph.o
 .text.OledDrawString
                0x00000000       0x3c build/default/production/OledGrph.o
 .text.OledFillRect
                0x00000000      0x1a0 build/default/production/OledGrph.o
 .text          0x00000000        0x0 build/default/production/_ext/1047219354/drv_oc_mapping.o
 .data          0x00000000        0x0 build/default/production/_ext/1047219354/drv_oc_mapping.o
 .bss           0x00000000        0x0 build/default/production/_ext/1047219354/drv_oc_mapping.o
 .reginfo       0x00000000       0x18 build/default/production/_ext/1047219354/drv_oc_mapping.o
 .text.DRV_OC_Initialize
                0x00000000       0x5c build/default/production/_ext/1047219354/drv_oc_mapping.o
 .text.DRV_OC_Start
                0x00000000       0x5c build/default/production/_ext/1047219354/drv_oc_mapping.o
 .text.DRV_OC_Stop
                0x00000000       0x44 build/default/production/_ext/1047219354/drv_oc_mapping.o
 .text.DRV_OC_CompareValuesSingleSet
                0x00000000        0x8 build/default/production/_ext/1047219354/drv_oc_mapping.o
 .text.DRV_OC_CompareValuesDualSet
                0x00000000        0x8 build/default/production/_ext/1047219354/drv_oc_mapping.o
 .text.DRV_OC_PulseWidthSet
                0x00000000       0x44 build/default/production/_ext/1047219354/drv_oc_mapping.o
 .text.DRV_OC_FaultHasOccurred
                0x00000000       0x48 build/default/production/_ext/1047219354/drv_oc_mapping.o
 .text          0x00000000        0x0 build/default/production/_ext/1047219354/drv_oc_static.o
 .data          0x00000000        0x0 build/default/production/_ext/1047219354/drv_oc_static.o
 .bss           0x00000000        0x0 build/default/production/_ext/1047219354/drv_oc_static.o
 .reginfo       0x00000000       0x18 build/default/production/_ext/1047219354/drv_oc_static.o
 .text.DRV_OC0_Enable
                0x00000000       0x14 build/default/production/_ext/1047219354/drv_oc_static.o
 .text.DRV_OC0_Disable
                0x00000000       0x14 build/default/production/_ext/1047219354/drv_oc_static.o
 .text.DRV_OC0_Stop
                0x00000000       0x14 build/default/production/_ext/1047219354/drv_oc_static.o
 .text.DRV_OC0_FaultHasOccurred
                0x00000000       0x10 build/default/production/_ext/1047219354/drv_oc_static.o
 .text.DRV_OC1_Enable
                0x00000000       0x14 build/default/production/_ext/1047219354/drv_oc_static.o
 .text.DRV_OC1_Disable
                0x00000000       0x14 build/default/production/_ext/1047219354/drv_oc_static.o
 .text.DRV_OC1_Stop
                0x00000000       0x14 build/default/production/_ext/1047219354/drv_oc_static.o
 .text.DRV_OC1_FaultHasOccurred
                0x00000000       0x10 build/default/production/_ext/1047219354/drv_oc_static.o
 .text          0x00000000        0x0 build/default/production/_ext/977502197/drv_spi_tasks.o
 .data          0x00000000        0x0 build/default/production/_ext/977502197/drv_spi_tasks.o
 .bss           0x00000000        0x0 build/default/production/_ext/977502197/drv_spi_tasks.o
 .reginfo       0x00000000       0x18 build/default/production/_ext/977502197/drv_spi_tasks.o
 .text          0x00000000        0x0 build/default/production/_ext/977502197/drv_spi_api.o
 .data          0x00000000        0x0 build/default/production/_ext/977502197/drv_spi_api.o
 .bss           0x00000000        0x0 build/default/production/_ext/977502197/drv_spi_api.o
 .reginfo       0x00000000       0x18 build/default/production/_ext/977502197/drv_spi_api.o
 .text          0x00000000        0x0 build/default/production/_ext/977502197/drv_spi_master_rm_tasks.o
 .data          0x00000000        0x0 build/default/production/_ext/977502197/drv_spi_master_rm_tasks.o
 .bss           0x00000000        0x0 build/default/production/_ext/977502197/drv_spi_master_rm_tasks.o
 .reginfo       0x00000000       0x18 build/default/production/_ext/977502197/drv_spi_master_rm_tasks.o
 .text          0x00000000        0x0 build/default/production/_ext/1407244131/drv_tmr_static.o
 .data          0x00000000        0x0 build/default/production/_ext/1407244131/drv_tmr_static.o
 .bss           0x00000000        0x0 build/default/production/_ext/1407244131/drv_tmr_static.o
 .reginfo       0x00000000       0x18 build/default/production/_ext/1407244131/drv_tmr_static.o
 .text.DRV_TMR0_Stop
                0x00000000       0x3c build/default/production/_ext/1407244131/drv_tmr_static.o
 .text.DRV_TMR0_ClientStatus
                0x00000000       0x14 build/default/production/_ext/1407244131/drv_tmr_static.o
 .text.DRV_TMR0_CounterValueSet
                0x00000000       0x14 build/default/production/_ext/1407244131/drv_tmr_static.o
 .text.DRV_TMR0_CounterValueGet
                0x00000000       0x14 build/default/production/_ext/1407244131/drv_tmr_static.o
 .text.DRV_TMR0_CounterClear
                0x00000000       0x10 build/default/production/_ext/1407244131/drv_tmr_static.o
 .text.DRV_TMR0_CounterFrequencyGet
                0x00000000       0x4c build/default/production/_ext/1407244131/drv_tmr_static.o
 .text.DRV_TMR0_PrescalerGet
                0x00000000       0xa4 build/default/production/_ext/1407244131/drv_tmr_static.o
 .text.DRV_TMR0_PeriodValueSet
                0x00000000       0x14 build/default/production/_ext/1407244131/drv_tmr_static.o
 .text.DRV_TMR0_StopInIdleDisable
                0x00000000       0x14 build/default/production/_ext/1407244131/drv_tmr_static.o
 .text.DRV_TMR0_StopInIdleEnable
                0x00000000       0x14 build/default/production/_ext/1407244131/drv_tmr_static.o
 .text.DRV_TMR0_ClockSet
                0x00000000       0x80 build/default/production/_ext/1407244131/drv_tmr_static.o
 .text          0x00000000        0x0 build/default/production/_ext/1407244131/drv_tmr_mapping.o
 .data          0x00000000        0x0 build/default/production/_ext/1407244131/drv_tmr_mapping.o
 .bss           0x00000000        0x0 build/default/production/_ext/1407244131/drv_tmr_mapping.o
 .reginfo       0x00000000       0x18 build/default/production/_ext/1407244131/drv_tmr_mapping.o
 .text.DRV_TMR_Initialize
                0x00000000       0x34 build/default/production/_ext/1407244131/drv_tmr_mapping.o
 .text.DRV_TMR_Deinitialize
                0x00000000       0x28 build/default/production/_ext/1407244131/drv_tmr_mapping.o
 .text.DRV_TMR_Status
                0x00000000        0x8 build/default/production/_ext/1407244131/drv_tmr_mapping.o
 .text.DRV_TMR_Tasks
                0x00000000        0x8 build/default/production/_ext/1407244131/drv_tmr_mapping.o
 .text.DRV_TMR_Open
                0x00000000        0x8 build/default/production/_ext/1407244131/drv_tmr_mapping.o
 .text.DRV_TMR_Close
                0x00000000       0x28 build/default/production/_ext/1407244131/drv_tmr_mapping.o
 .text.DRV_TMR_ClientStatus
                0x00000000       0x30 build/default/production/_ext/1407244131/drv_tmr_mapping.o
 .text.DRV_TMR_CounterValueSet
                0x00000000       0x28 build/default/production/_ext/1407244131/drv_tmr_mapping.o
 .text.DRV_TMR_CounterValueGet
                0x00000000       0x30 build/default/production/_ext/1407244131/drv_tmr_mapping.o
 .text.DRV_TMR_CounterClear
                0x00000000       0x28 build/default/production/_ext/1407244131/drv_tmr_mapping.o
 .text.DRV_TMR_AlarmRegister
                0x00000000        0x8 build/default/production/_ext/1407244131/drv_tmr_mapping.o
 .text.DRV_TMR_AlarmDisable
                0x00000000        0x8 build/default/production/_ext/1407244131/drv_tmr_mapping.o
 .text.DRV_TMR_AlarmEnable
                0x00000000        0x8 build/default/production/_ext/1407244131/drv_tmr_mapping.o
 .text.DRV_TMR_AlarmPeriodSet
                0x00000000        0x8 build/default/production/_ext/1407244131/drv_tmr_mapping.o
 .text.DRV_TMR_AlarmPeriodGet
                0x00000000        0x8 build/default/production/_ext/1407244131/drv_tmr_mapping.o
 .text.DRV_TMR_AlarmDeregister
                0x00000000        0x8 build/default/production/_ext/1407244131/drv_tmr_mapping.o
 .text.DRV_TMR_Start
                0x00000000       0x30 build/default/production/_ext/1407244131/drv_tmr_mapping.o
 .text.DRV_TMR_Stop
                0x00000000       0x28 build/default/production/_ext/1407244131/drv_tmr_mapping.o
 .text.DRV_TMR_AlarmHasElapsed
                0x00000000        0x8 build/default/production/_ext/1407244131/drv_tmr_mapping.o
 .text.DRV_TMR_OperationModeGet
                0x00000000        0x8 build/default/production/_ext/1407244131/drv_tmr_mapping.o
 .text.DRV_TMR_ClockSet
                0x00000000       0x30 build/default/production/_ext/1407244131/drv_tmr_mapping.o
 .text.DRV_TMR_PrescalerGet
                0x00000000       0x30 build/default/production/_ext/1407244131/drv_tmr_mapping.o
 .text.DRV_TMR_GateModeSet
                0x00000000        0x8 build/default/production/_ext/1407244131/drv_tmr_mapping.o
 .text.DRV_TMR_GateModeClear
                0x00000000        0x8 build/default/production/_ext/1407244131/drv_tmr_mapping.o
 .text.DRV_TMR_CounterFrequencyGet
                0x00000000       0x30 build/default/production/_ext/1407244131/drv_tmr_mapping.o
 .text.DRV_TMR_DividerRangeGet
                0x00000000       0x30 build/default/production/_ext/1407244131/drv_tmr_mapping.o
 .text          0x00000000        0x0 build/default/production/_ext/639803181/sys_clk.o
 .data          0x00000000        0x0 build/default/production/_ext/639803181/sys_clk.o
 .bss           0x00000000        0x0 build/default/production/_ext/639803181/sys_clk.o
 .reginfo       0x00000000       0x18 build/default/production/_ext/639803181/sys_clk.o
 .text.SYS_CLK_ClockFailureCallbackRegister
                0x00000000        0xc build/default/production/_ext/639803181/sys_clk.o
 .text.SYS_CLK_SystemFrequencySet
                0x00000000       0x40 build/default/production/_ext/639803181/sys_clk.o
 .text.SYS_CLK_PeripheralFrequencySet
                0x00000000       0x84 build/default/production/_ext/639803181/sys_clk.o
 .text.SYS_CLK_ReferenceFrequencySet
                0x00000000        0x8 build/default/production/_ext/639803181/sys_clk.o
 .text.SYS_CLK_ReferenceFrequencyGet
                0x00000000        0x8 build/default/production/_ext/639803181/sys_clk.o
 .text.SYS_CLK_TaskError
                0x00000000       0x38 build/default/production/_ext/639803181/sys_clk.o
 .text.SYS_CLK_ReferenceClockSetup
                0x00000000        0x8 build/default/production/_ext/639803181/sys_clk.o
 .text.SYS_CLK_FRCTune
                0x00000000       0x18 build/default/production/_ext/639803181/sys_clk.o
 .text.SYS_CLK_SecondaryOscillatorEnable
                0x00000000       0x48 build/default/production/_ext/639803181/sys_clk.o
 .text.SYS_CLK_SecondaryOscillatorDisable
                0x00000000       0x48 build/default/production/_ext/639803181/sys_clk.o
 .text.SYS_CLK_SecondaryOscillatorIsEnabled
                0x00000000       0x10 build/default/production/_ext/639803181/sys_clk.o
 .text          0x00000000        0x0 build/default/production/_ext/639803181/sys_clk_pic32mx.o
 .data          0x00000000        0x0 build/default/production/_ext/639803181/sys_clk_pic32mx.o
 .bss           0x00000000        0x0 build/default/production/_ext/639803181/sys_clk_pic32mx.o
 .reginfo       0x00000000       0x18 build/default/production/_ext/639803181/sys_clk_pic32mx.o
 .text._SYS_CLK_GetOscPeripheralBus
                0x00000000        0x8 build/default/production/_ext/639803181/sys_clk_pic32mx.o
 .text._SYS_CLK_PLLInputDividerRead
                0x00000000       0x14 build/default/production/_ext/639803181/sys_clk_pic32mx.o
 .text._SYS_CLK_PLLMultiplierRead
                0x00000000       0x48 build/default/production/_ext/639803181/sys_clk_pic32mx.o
 .text._SYS_CLK_PLLOutputDividerRead
                0x00000000       0x3c build/default/production/_ext/639803181/sys_clk_pic32mx.o
 .text._SYS_CLK_FRCDividerRead
                0x00000000       0x3c build/default/production/_ext/639803181/sys_clk_pic32mx.o
 .text._SYS_CLK_SystemClockRead
                0x00000000      0x140 build/default/production/_ext/639803181/sys_clk_pic32mx.o
 .text._SYS_CLK_PeripheralFrequencySet
                0x00000000      0x140 build/default/production/_ext/639803181/sys_clk_pic32mx.o
 .text.SYS_CLK_ClosestFactorsGet
                0x00000000       0xc8 build/default/production/_ext/639803181/sys_clk_pic32mx.o
 .text.SYS_CLK_FRCClosestDivisorGet
                0x00000000       0x84 build/default/production/_ext/639803181/sys_clk_pic32mx.o
 .text.SYS_CLK_FrequencyErrorCheck
                0x00000000       0x18 build/default/production/_ext/639803181/sys_clk_pic32mx.o
 .text.SYS_CLK_SystemClockSourceSwitch
                0x00000000      0x1c4 build/default/production/_ext/639803181/sys_clk_pic32mx.o
 .text._SYS_CLK_SystemClockSet
                0x00000000      0x194 build/default/production/_ext/639803181/sys_clk_pic32mx.o
 .text          0x00000000        0x0 build/default/production/_ext/340578644/sys_devcon.o
 .data          0x00000000        0x0 build/default/production/_ext/340578644/sys_devcon.o
 .bss           0x00000000        0x0 build/default/production/_ext/340578644/sys_devcon.o
 .reginfo       0x00000000       0x18 build/default/production/_ext/340578644/sys_devcon.o
 .text.SYS_DEVCON_Reinitialize
                0x00000000       0x10 build/default/production/_ext/340578644/sys_devcon.o
 .text.SYS_DEVCON_Deinitialize
                0x00000000        0x8 build/default/production/_ext/340578644/sys_devcon.o
 .text.SYS_DEVCON_Status
                0x00000000        0x8 build/default/production/_ext/340578644/sys_devcon.o
 .text.SYS_DEVCON_Tasks
                0x00000000        0x8 build/default/production/_ext/340578644/sys_devcon.o
 .text.SYS_DEVCON_JTAGEnable
                0x00000000       0x18 build/default/production/_ext/340578644/sys_devcon.o
 .text.SYS_DEVCON_TraceEnable
                0x00000000       0x1c build/default/production/_ext/340578644/sys_devcon.o
 .text.SYS_DEVCON_TraceDisable
                0x00000000       0x18 build/default/production/_ext/340578644/sys_devcon.o
 .text.SYS_DEVCON_PowerModeEnter
                0x00000000       0x44 build/default/production/_ext/340578644/sys_devcon.o
 .text          0x00000000        0x0 build/default/production/_ext/340578644/sys_devcon_pic32mx.o
 .data          0x00000000        0x0 build/default/production/_ext/340578644/sys_devcon_pic32mx.o
 .bss           0x00000000        0x0 build/default/production/_ext/340578644/sys_devcon_pic32mx.o
 .reginfo       0x00000000       0x18 build/default/production/_ext/340578644/sys_devcon_pic32mx.o
 .text          0x00000000        0x0 build/default/production/_ext/822048611/sys_ports_static.o
 .data          0x00000000        0x0 build/default/production/_ext/822048611/sys_ports_static.o
 .bss           0x00000000        0x0 build/default/production/_ext/822048611/sys_ports_static.o
 .reginfo       0x00000000       0x18 build/default/production/_ext/822048611/sys_ports_static.o
 .text.SYS_PORTS_Read
                0x00000000       0x28 build/default/production/_ext/822048611/sys_ports_static.o
 .text.SYS_PORTS_Write
                0x00000000       0x28 build/default/production/_ext/822048611/sys_ports_static.o
 .text.SYS_PORTS_Set
                0x00000000       0x2c build/default/production/_ext/822048611/sys_ports_static.o
 .text.SYS_PORTS_Clear
                0x00000000       0x28 build/default/production/_ext/822048611/sys_ports_static.o
 .text.SYS_PORTS_DirectionSelect
                0x00000000       0x54 build/default/production/_ext/822048611/sys_ports_static.o
 .text.SYS_PORTS_DirectionGet
                0x00000000       0x28 build/default/production/_ext/822048611/sys_ports_static.o
 .text.SYS_PORTS_Toggle
                0x00000000       0x28 build/default/production/_ext/822048611/sys_ports_static.o
 .text.SYS_PORTS_OpenDrainEnable
                0x00000000       0x28 build/default/production/_ext/822048611/sys_ports_static.o
 .text.SYS_PORTS_OpenDrainDisable
                0x00000000       0x28 build/default/production/_ext/822048611/sys_ports_static.o
 .text.SYS_PORTS_ChangeNotificationGlobalEnable
                0x00000000       0x14 build/default/production/_ext/822048611/sys_ports_static.o
 .text.SYS_PORTS_ChangeNotificationGlobalDisable
                0x00000000       0x14 build/default/production/_ext/822048611/sys_ports_static.o
 .text.SYS_PORTS_GlobalChangeNotificationDisable
                0x00000000       0x14 build/default/production/_ext/822048611/sys_ports_static.o
 .text.SYS_PORTS_ChangeNotificationEnable
                0x00000000       0x50 build/default/production/_ext/822048611/sys_ports_static.o
 .text.SYS_PORTS_ChangeNotificationDisable
                0x00000000       0x18 build/default/production/_ext/822048611/sys_ports_static.o
 .text.SYS_PORTS_ChangeNotificationInIdleModeEnable
                0x00000000       0x14 build/default/production/_ext/822048611/sys_ports_static.o
 .text.SYS_PORTS_ChangeNotificationInIdleModeDisable
                0x00000000       0x14 build/default/production/_ext/822048611/sys_ports_static.o
 .text.SYS_PORTS_ChangeNotificationPullUpEnable
                0x00000000       0x18 build/default/production/_ext/822048611/sys_ports_static.o
 .text.SYS_PORTS_ChangeNotificationPullUpDisable
                0x00000000       0x18 build/default/production/_ext/822048611/sys_ports_static.o
 .text.SYS_PORTS_PinModeSelect
                0x00000000       0x2c build/default/production/_ext/822048611/sys_ports_static.o
 .text.SYS_PORTS_PinWrite
                0x00000000       0x60 build/default/production/_ext/822048611/sys_ports_static.o
 .text.SYS_PORTS_PinRead
                0x00000000       0x2c build/default/production/_ext/822048611/sys_ports_static.o
 .text.SYS_PORTS_PinToggle
                0x00000000       0x30 build/default/production/_ext/822048611/sys_ports_static.o
 .text.SYS_PORTS_PinSet
                0x00000000       0x30 build/default/production/_ext/822048611/sys_ports_static.o
 .text.SYS_PORTS_PinClear
                0x00000000       0x30 build/default/production/_ext/822048611/sys_ports_static.o
 .text.SYS_PORTS_PinDirectionSelect
                0x00000000       0x60 build/default/production/_ext/822048611/sys_ports_static.o
 .text.SYS_PORTS_PinOpenDrainEnable
                0x00000000       0x30 build/default/production/_ext/822048611/sys_ports_static.o
 .text.SYS_PORTS_PinOpenDrainDisable
                0x00000000       0x30 build/default/production/_ext/822048611/sys_ports_static.o
 .text.SYS_PORTS_RemapInput
                0x00000000        0x8 build/default/production/_ext/822048611/sys_ports_static.o
 .text.SYS_PORTS_RemapOutput
                0x00000000        0x8 build/default/production/_ext/822048611/sys_ports_static.o
 .text          0x00000000        0x0 build/default/production/_ext/1688732426/system_init.o
 .bss           0x00000000        0x0 build/default/production/_ext/1688732426/system_init.o
 .reginfo       0x00000000       0x18 build/default/production/_ext/1688732426/system_init.o
 .text          0x00000000        0x0 build/default/production/_ext/1688732426/system_interrupt.o
 .data          0x00000000        0x0 build/default/production/_ext/1688732426/system_interrupt.o
 .bss           0x00000000        0x0 build/default/production/_ext/1688732426/system_interrupt.o
 .reginfo       0x00000000       0x18 build/default/production/_ext/1688732426/system_interrupt.o
 .text          0x00000000        0x0 build/default/production/_ext/1688732426/system_exceptions.o
 .data          0x00000000        0x0 build/default/production/_ext/1688732426/system_exceptions.o
 .bss           0x00000000        0x0 build/default/production/_ext/1688732426/system_exceptions.o
 .reginfo       0x00000000       0x18 build/default/production/_ext/1688732426/system_exceptions.o
 .text          0x00000000        0x0 build/default/production/_ext/1688732426/system_tasks.o
 .data          0x00000000        0x0 build/default/production/_ext/1688732426/system_tasks.o
 .bss           0x00000000        0x0 build/default/production/_ext/1688732426/system_tasks.o
 .reginfo       0x00000000       0x18 build/default/production/_ext/1688732426/system_tasks.o
 .text          0x00000000        0x0 build/default/production/_ext/1360937237/app.o
 .data          0x00000000        0x0 build/default/production/_ext/1360937237/app.o
 .bss           0x00000000        0x0 build/default/production/_ext/1360937237/app.o
 .reginfo       0x00000000       0x18 build/default/production/_ext/1360937237/app.o
 .text          0x00000000        0x0 build/default/production/_ext/1360937237/main.o
 .data          0x00000000        0x0 build/default/production/_ext/1360937237/main.o
 .bss           0x00000000        0x0 build/default/production/_ext/1360937237/main.o
 .reginfo       0x00000000       0x18 build/default/production/_ext/1360937237/main.o
 .text          0x00000000        0x0 build/default/production/_ext/1360937237/bioshield.o
 .data          0x00000000        0x0 build/default/production/_ext/1360937237/bioshield.o
 .bss           0x00000000        0x0 build/default/production/_ext/1360937237/bioshield.o
 .reginfo       0x00000000       0x18 build/default/production/_ext/1360937237/bioshield.o
 .text          0x00000000        0x0 build/default/production/_ext/1360937237/orient.o
 .reginfo       0x00000000       0x18 build/default/production/_ext/1360937237/orient.o
 .text          0x00000000        0x0 build/default/production/_ext/1022305019/drv_i2c.o
 .data          0x00000000        0x0 build/default/production/_ext/1022305019/drv_i2c.o
 .reginfo       0x00000000       0x18 build/default/production/_ext/1022305019/drv_i2c.o
 .text._DRV_I2C_QueueSlotGet
                0x00000000      0x1d8 build/default/production/_ext/1022305019/drv_i2c.o
 .text._DRV_I2C_QueueTailReset
                0x00000000       0x24 build/default/production/_ext/1022305019/drv_i2c.o
 .text._DRV_I2C_QueuePush
                0x00000000       0xbc build/default/production/_ext/1022305019/drv_i2c.o
 .text.DRV_I2C_Deinitialize
                0x00000000       0xfc build/default/production/_ext/1022305019/drv_i2c.o
 .text.DRV_I2C_Status
                0x00000000       0x1c build/default/production/_ext/1022305019/drv_i2c.o
 .text.DRV_I2C_Open
                0x00000000       0xc8 build/default/production/_ext/1022305019/drv_i2c.o
 .text.DRV_I2C_Close
                0x00000000       0x38 build/default/production/_ext/1022305019/drv_i2c.o
 .text.DRV_I2C_ClientSetup
                0x00000000       0x70 build/default/production/_ext/1022305019/drv_i2c.o
 .text.DRV_I2C_BufferEventHandlerSet
                0x00000000        0xc build/default/production/_ext/1022305019/drv_i2c.o
 .text.DRV_I2C_Receive
                0x00000000      0x1e8 build/default/production/_ext/1022305019/drv_i2c.o
 .text.DRV_I2C_BufferAddRead
                0x00000000      0x1d4 build/default/production/_ext/1022305019/drv_i2c.o
 .text.DRV_I2C_Transmit
                0x00000000      0x1e4 build/default/production/_ext/1022305019/drv_i2c.o
 .text.DRV_I2C_BufferAddWrite
                0x00000000      0x1d0 build/default/production/_ext/1022305019/drv_i2c.o
 .text.DRV_I2C_TransmitThenReceive
                0x00000000      0x1f4 build/default/production/_ext/1022305019/drv_i2c.o
 .text.DRV_I2C_BufferAddWriteRead
                0x00000000      0x1e0 build/default/production/_ext/1022305019/drv_i2c.o
 .text.DRV_I2C_TransferStatusGet
                0x00000000        0x8 build/default/production/_ext/1022305019/drv_i2c.o
 .text.DRV_I2C_BufferStatus
                0x00000000        0x8 build/default/production/_ext/1022305019/drv_i2c.o
 .text.DRV_I2C_BytesTransferred
                0x00000000        0x8 build/default/production/_ext/1022305019/drv_i2c.o
 .text.DRV_I2C_VersionGet
                0x00000000        0x8 build/default/production/_ext/1022305019/drv_i2c.o
 .rodata        0x00000000        0xc build/default/production/_ext/1022305019/drv_i2c.o
 .text.DRV_I2C_VersionStrGet
                0x00000000        0xc build/default/production/_ext/1022305019/drv_i2c.o
 .text.DRV_I2C_StopEventSend
                0x00000000       0x20 build/default/production/_ext/1022305019/drv_i2c.o
 .text.DRV_I2C_RestartEventSend
                0x00000000       0x20 build/default/production/_ext/1022305019/drv_i2c.o
 .text.DRV_I2C_IRQEventSend
                0x00000000       0x50 build/default/production/_ext/1022305019/drv_i2c.o
 .text.DRV_I2C_QueueFlush
                0x00000000       0x98 build/default/production/_ext/1022305019/drv_i2c.o
 .text          0x00000000        0x0 build/default/production/_ext/1871970537/drv_spi.o
 .reginfo       0x00000000       0x18 build/default/production/_ext/1871970537/drv_spi.o
 .text.DRV_SPI_Deinitialize
                0x00000000       0x8c build/default/production/_ext/1871970537/drv_spi.o
 .text.DRV_SPI_Status
                0x00000000        0x8 build/default/production/_ext/1871970537/drv_spi.o
 .text.DRV_SPI_Close
                0x00000000      0x1ec build/default/production/_ext/1871970537/drv_spi.o
 .text.DRV_SPI_BufferAddRead2
                0x00000000      0x210 build/default/production/_ext/1871970537/drv_spi.o
 .text.DRV_SPI_BufferAddWriteRead2
                0x00000000      0x200 build/default/production/_ext/1871970537/drv_spi.o
 .text.DRV_SPI_BufferAddRead
                0x00000000       0x24 build/default/production/_ext/1871970537/drv_spi.o
 .text.DRV_SPI_BufferAddWriteRead
                0x00000000       0x34 build/default/production/_ext/1871970537/drv_spi.o
 .text.DRV_SPI_BufferStatus
                0x00000000        0x8 build/default/production/_ext/1871970537/drv_spi.o
 .text.DRV_SPI_ClientConfigure
                0x00000000       0x74 build/default/production/_ext/1871970537/drv_spi.o
 .text          0x00000000        0x0 build/default/production/_ext/1805174553/drv_spi_sys_queue_fifo.o
 .data          0x00000000        0x0 build/default/production/_ext/1805174553/drv_spi_sys_queue_fifo.o
 .bss           0x00000000        0x0 build/default/production/_ext/1805174553/drv_spi_sys_queue_fifo.o
 .reginfo       0x00000000       0x18 build/default/production/_ext/1805174553/drv_spi_sys_queue_fifo.o
 .text.DRV_SPI_SYS_QUEUE_DestroyQueue
                0x00000000       0xa8 build/default/production/_ext/1805174553/drv_spi_sys_queue_fifo.o
 .text.DRV_SPI_SYS_QUEUE_Peek
                0x00000000       0x44 build/default/production/_ext/1805174553/drv_spi_sys_queue_fifo.o
 .text.DRV_SPI_SYS_QUEUE_Lock
                0x00000000       0x1c build/default/production/_ext/1805174553/drv_spi_sys_queue_fifo.o
 .text.DRV_SPI_SYS_QUEUE_Unlock
                0x00000000       0x1c build/default/production/_ext/1805174553/drv_spi_sys_queue_fifo.o
 .text.DRV_SPI_SYS_QUEUE_CreateQueueLock
                0x00000000       0x1c build/default/production/_ext/1805174553/drv_spi_sys_queue_fifo.o
 .text.DRV_SPI_SYS_QUEUE_DestroyQueueLock
                0x00000000       0x58 build/default/production/_ext/1805174553/drv_spi_sys_queue_fifo.o
 .text.DRV_SPI_SYS_QUEUE_FreeElementLock
                0x00000000       0x60 build/default/production/_ext/1805174553/drv_spi_sys_queue_fifo.o
 .text.DRV_SPI_SYS_QUEUE_DequeueLock
                0x00000000       0x60 build/default/production/_ext/1805174553/drv_spi_sys_queue_fifo.o
 .text.DRV_SPI_SYS_QUEUE_QueueManagerStatus
                0x00000000        0x8 build/default/production/_ext/1805174553/drv_spi_sys_queue_fifo.o
 .text.DRV_SPI_SYS_QUEUE_QueueStatus
                0x00000000        0x8 build/default/production/_ext/1805174553/drv_spi_sys_queue_fifo.o
 .text._DRV_SPI_SYS_QUEUE_LockQueueManager
                0x00000000        0x8 build/default/production/_ext/1805174553/drv_spi_sys_queue_fifo.o
 .text._DRV_SPI_SYS_QUEUE_UnlockQueueManager
                0x00000000        0x8 build/default/production/_ext/1805174553/drv_spi_sys_queue_fifo.o
 .text          0x00000000        0x0 build/default/production/_ext/1590698352/drv_usart.o
 .data          0x00000000        0x0 build/default/production/_ext/1590698352/drv_usart.o
 .bss           0x00000000        0x0 build/default/production/_ext/1590698352/drv_usart.o
 .reginfo       0x00000000       0x18 build/default/production/_ext/1590698352/drv_usart.o
 .text.DRV_USART_Deinitialize
                0x00000000       0xac build/default/production/_ext/1590698352/drv_usart.o
 .text.DRV_USART_Status
                0x00000000       0x30 build/default/production/_ext/1590698352/drv_usart.o
 .text.DRV_USART_Open
                0x00000000      0x128 build/default/production/_ext/1590698352/drv_usart.o
 .text.DRV_USART_ByteTransmitCallbackSet
                0x00000000       0x14 build/default/production/_ext/1590698352/drv_usart.o
 .text.DRV_USART_ByteReceiveCallbackSet
                0x00000000       0x14 build/default/production/_ext/1590698352/drv_usart.o
 .text.DRV_USART_ByteErrorCallbackSet
                0x00000000       0x14 build/default/production/_ext/1590698352/drv_usart.o
 .text._DRV_USART_DriverHandleValidate
                0x00000000       0x28 build/default/production/_ext/1590698352/drv_usart.o
 .text.DRV_USART_Close
                0x00000000       0x40 build/default/production/_ext/1590698352/drv_usart.o
 .text.DRV_USART_ErrorGet
                0x00000000       0x30 build/default/production/_ext/1590698352/drv_usart.o
 .text.DRV_USART_BaudSet
                0x00000000       0xf4 build/default/production/_ext/1590698352/drv_usart.o
 .text.DRV_USART_LineControlSet
                0x00000000       0x84 build/default/production/_ext/1590698352/drv_usart.o
 .text.DRV_USART_ClientStatus
                0x00000000       0x28 build/default/production/_ext/1590698352/drv_usart.o
 .text.DRV_USART_TransferStatus
                0x00000000       0x6c build/default/production/_ext/1590698352/drv_usart.o
 .text._DRV_USART_ClientBufferQueueObjectsRemove
                0x00000000      0x210 build/default/production/_ext/1590698352/drv_usart.o
 .text._DRV_USART_BufferQueueRxTasks
                0x00000000      0x174 build/default/production/_ext/1590698352/drv_usart.o
 .text._DRV_USART_BufferQueueTxTasks
                0x00000000      0x210 build/default/production/_ext/1590698352/drv_usart.o
 .text._DRV_USART_BufferQueueErrorTasks
                0x00000000       0xd4 build/default/production/_ext/1590698352/drv_usart.o
 .text          0x00000000        0x0 build/default/production/_ext/1590698352/drv_usart_byte_model.o
 .data          0x00000000        0x0 build/default/production/_ext/1590698352/drv_usart_byte_model.o
 .bss           0x00000000        0x0 build/default/production/_ext/1590698352/drv_usart_byte_model.o
 .reginfo       0x00000000       0x18 build/default/production/_ext/1590698352/drv_usart_byte_model.o
 .text.DRV_USART_WriteByte
                0x00000000       0x70 build/default/production/_ext/1590698352/drv_usart_byte_model.o
 .text.DRV_USART_ReadByte
                0x00000000       0x50 build/default/production/_ext/1590698352/drv_usart_byte_model.o
 .text.DRV_USART_ReceiverBufferSizeGet
                0x00000000       0x28 build/default/production/_ext/1590698352/drv_usart_byte_model.o
 .text.DRV_USART_TransmitBufferSizeGet
                0x00000000       0x28 build/default/production/_ext/1590698352/drv_usart_byte_model.o
 .text.DRV_USART_ReceiverBufferIsEmpty
                0x00000000       0x38 build/default/production/_ext/1590698352/drv_usart_byte_model.o
 .text.DRV_USART_TransmitBufferIsFull
                0x00000000       0x34 build/default/production/_ext/1590698352/drv_usart_byte_model.o
 .text          0x00000000        0x0 build/default/production/_ext/2147425457/sys_int_pic32.o
 .data          0x00000000        0x0 build/default/production/_ext/2147425457/sys_int_pic32.o
 .bss           0x00000000        0x0 build/default/production/_ext/2147425457/sys_int_pic32.o
 .reginfo       0x00000000       0x18 build/default/production/_ext/2147425457/sys_int_pic32.o
 .text.SYS_INT_StatusGetAndDisable
                0x00000000       0x1c build/default/production/_ext/2147425457/sys_int_pic32.o
 .text.SYS_INT_StatusRestore
                0x00000000       0x1c build/default/production/_ext/2147425457/sys_int_pic32.o
 .text.SYS_INT_Disable
                0x00000000       0x20 build/default/production/_ext/2147425457/sys_int_pic32.o
 .text.SYS_INT_ExternalInterruptTriggerSet
                0x00000000       0x28 build/default/production/_ext/2147425457/sys_int_pic32.o
 .text          0x00000000        0x0 /opt/microchip/xc32/v1.44/bin/bin/../../lib/gcc/pic32mx/4.8.3/../../../../pic32mx/lib/./proc/32MX320F128H/default_isr_vectors.o
 .data          0x00000000        0x0 /opt/microchip/xc32/v1.44/bin/bin/../../lib/gcc/pic32mx/4.8.3/../../../../pic32mx/lib/./proc/32MX320F128H/default_isr_vectors.o
 .bss           0x00000000        0x0 /opt/microchip/xc32/v1.44/bin/bin/../../lib/gcc/pic32mx/4.8.3/../../../../pic32mx/lib/./proc/32MX320F128H/default_isr_vectors.o
 .reginfo       0x00000000       0x18 /opt/microchip/xc32/v1.44/bin/bin/../../lib/gcc/pic32mx/4.8.3/../../../../pic32mx/lib/./proc/32MX320F128H/default_isr_vectors.o
 .discard       0x00000000       0xb4 /opt/microchip/xc32/v1.44/bin/bin/../../lib/gcc/pic32mx/4.8.3/../../../../pic32mx/lib/./proc/32MX320F128H/default_isr_vectors.o
 .data          0x00000000        0x0 /opt/microchip/xc32/v1.44/bin/bin/../../lib/gcc/pic32mx/4.8.3/../../../../pic32mx/lib/pic32_software_reset.o
 .bss           0x00000000        0x0 /opt/microchip/xc32/v1.44/bin/bin/../../lib/gcc/pic32mx/4.8.3/../../../../pic32mx/lib/pic32_software_reset.o
 .reginfo       0x00000000       0x18 /opt/microchip/xc32/v1.44/bin/bin/../../lib/gcc/pic32mx/4.8.3/../../../../pic32mx/lib/pic32_software_reset.o
 .text          0x00000000        0x0 /opt/microchip/xc32/v1.44/bin/bin/../../lib/gcc/pic32mx/4.8.3/../../../../pic32mx/lib/./proc/32MX320F128H/processor.o
 .data          0x00000000        0x0 /opt/microchip/xc32/v1.44/bin/bin/../../lib/gcc/pic32mx/4.8.3/../../../../pic32mx/lib/./proc/32MX320F128H/processor.o
 .bss           0x00000000        0x0 /opt/microchip/xc32/v1.44/bin/bin/../../lib/gcc/pic32mx/4.8.3/../../../../pic32mx/lib/./proc/32MX320F128H/processor.o
 .reginfo       0x00000000       0x18 /opt/microchip/xc32/v1.44/bin/bin/../../lib/gcc/pic32mx/4.8.3/../../../../pic32mx/lib/./proc/32MX320F128H/processor.o
 .data          0x00000000        0x0 /opt/microchip/xc32/v1.44/bin/bin/../../lib/gcc/pic32mx/4.8.3/libgcc.a(floatunsisf.o)
 .bss           0x00000000        0x0 /opt/microchip/xc32/v1.44/bin/bin/../../lib/gcc/pic32mx/4.8.3/libgcc.a(floatunsisf.o)
 .reginfo       0x00000000       0x18 /opt/microchip/xc32/v1.44/bin/bin/../../lib/gcc/pic32mx/4.8.3/libgcc.a(floatunsisf.o)
 .data          0x00000000        0x0 /opt/microchip/xc32/v1.44/bin/bin/../../lib/gcc/pic32mx/4.8.3/../../../../pic32mx/lib/libpic32.a(memset.o)
 .bss           0x00000000        0x0 /opt/microchip/xc32/v1.44/bin/bin/../../lib/gcc/pic32mx/4.8.3/../../../../pic32mx/lib/libpic32.a(memset.o)
 .reginfo       0x00000000       0x18 /opt/microchip/xc32/v1.44/bin/bin/../../lib/gcc/pic32mx/4.8.3/../../../../pic32mx/lib/libpic32.a(memset.o)
 .text          0x00000000        0x0 /opt/microchip/xc32/v1.44/bin/bin/../../lib/gcc/pic32mx/4.8.3/../../../../pic32mx/lib/libpic32.a(default-bootstrap-exception-handler.o)
 .data          0x00000000        0x0 /opt/microchip/xc32/v1.44/bin/bin/../../lib/gcc/pic32mx/4.8.3/../../../../pic32mx/lib/libpic32.a(default-bootstrap-exception-handler.o)
 .bss           0x00000000        0x0 /opt/microchip/xc32/v1.44/bin/bin/../../lib/gcc/pic32mx/4.8.3/../../../../pic32mx/lib/libpic32.a(default-bootstrap-exception-handler.o)
 .reginfo       0x00000000       0x18 /opt/microchip/xc32/v1.44/bin/bin/../../lib/gcc/pic32mx/4.8.3/../../../../pic32mx/lib/libpic32.a(default-bootstrap-exception-handler.o)
 .text          0x00000000        0x0 /opt/microchip/xc32/v1.44/bin/bin/../../lib/gcc/pic32mx/4.8.3/../../../../pic32mx/lib/libpic32.a(default-on-reset.o)
 .data          0x00000000        0x0 /opt/microchip/xc32/v1.44/bin/bin/../../lib/gcc/pic32mx/4.8.3/../../../../pic32mx/lib/libpic32.a(default-on-reset.o)
 .bss           0x00000000        0x0 /opt/microchip/xc32/v1.44/bin/bin/../../lib/gcc/pic32mx/4.8.3/../../../../pic32mx/lib/libpic32.a(default-on-reset.o)
 .reginfo       0x00000000       0x18 /opt/microchip/xc32/v1.44/bin/bin/../../lib/gcc/pic32mx/4.8.3/../../../../pic32mx/lib/libpic32.a(default-on-reset.o)
 .text          0x00000000        0x0 /opt/microchip/xc32/v1.44/bin/bin/../../lib/gcc/pic32mx/4.8.3/../../../../pic32mx/lib/libpic32.a(default-on-bootstrap.o)
 .data          0x00000000        0x0 /opt/microchip/xc32/v1.44/bin/bin/../../lib/gcc/pic32mx/4.8.3/../../../../pic32mx/lib/libpic32.a(default-on-bootstrap.o)
 .bss           0x00000000        0x0 /opt/microchip/xc32/v1.44/bin/bin/../../lib/gcc/pic32mx/4.8.3/../../../../pic32mx/lib/libpic32.a(default-on-bootstrap.o)
 .reginfo       0x00000000       0x18 /opt/microchip/xc32/v1.44/bin/bin/../../lib/gcc/pic32mx/4.8.3/../../../../pic32mx/lib/libpic32.a(default-on-bootstrap.o)
 .data          0x00000000        0x0 /opt/microchip/xc32/v1.44/bin/bin/../../lib/gcc/pic32mx/4.8.3/../../../../pic32mx/lib/libpic32.a(default-nmi-handler.o)
 .bss           0x00000000        0x0 /opt/microchip/xc32/v1.44/bin/bin/../../lib/gcc/pic32mx/4.8.3/../../../../pic32mx/lib/libpic32.a(default-nmi-handler.o)
 .reginfo       0x00000000       0x18 /opt/microchip/xc32/v1.44/bin/bin/../../lib/gcc/pic32mx/4.8.3/../../../../pic32mx/lib/libpic32.a(default-nmi-handler.o)
 .text          0x00000000        0x0 /opt/microchip/xc32/v1.44/bin/bin/../../lib/gcc/pic32mx/4.8.3/../../../../pic32mx/lib/libpic32.a(general-exception.o)
 .data          0x00000000        0x0 /opt/microchip/xc32/v1.44/bin/bin/../../lib/gcc/pic32mx/4.8.3/../../../../pic32mx/lib/libpic32.a(general-exception.o)
 .bss           0x00000000        0x0 /opt/microchip/xc32/v1.44/bin/bin/../../lib/gcc/pic32mx/4.8.3/../../../../pic32mx/lib/libpic32.a(general-exception.o)
 .reginfo       0x00000000       0x18 /opt/microchip/xc32/v1.44/bin/bin/../../lib/gcc/pic32mx/4.8.3/../../../../pic32mx/lib/libpic32.a(general-exception.o)
 .text          0x00000000        0x0 /opt/microchip/xc32/v1.44/bin/bin/../../lib/gcc/pic32mx/4.8.3/../../../../pic32mx/lib/libpic32.a(vector0.o)
 .data          0x00000000        0x0 /opt/microchip/xc32/v1.44/bin/bin/../../lib/gcc/pic32mx/4.8.3/../../../../pic32mx/lib/libpic32.a(vector0.o)
 .bss           0x00000000        0x0 /opt/microchip/xc32/v1.44/bin/bin/../../lib/gcc/pic32mx/4.8.3/../../../../pic32mx/lib/libpic32.a(vector0.o)
 .reginfo       0x00000000       0x18 /opt/microchip/xc32/v1.44/bin/bin/../../lib/gcc/pic32mx/4.8.3/../../../../pic32mx/lib/libpic32.a(vector0.o)
 .text          0x00000000        0x0 /opt/microchip/xc32/v1.44/bin/bin/../../lib/gcc/pic32mx/4.8.3/../../../../pic32mx/lib/libpic32.a(vector1.o)
 .data          0x00000000        0x0 /opt/microchip/xc32/v1.44/bin/bin/../../lib/gcc/pic32mx/4.8.3/../../../../pic32mx/lib/libpic32.a(vector1.o)
 .bss           0x00000000        0x0 /opt/microchip/xc32/v1.44/bin/bin/../../lib/gcc/pic32mx/4.8.3/../../../../pic32mx/lib/libpic32.a(vector1.o)
 .reginfo       0x00000000       0x18 /opt/microchip/xc32/v1.44/bin/bin/../../lib/gcc/pic32mx/4.8.3/../../../../pic32mx/lib/libpic32.a(vector1.o)
 .text          0x00000000        0x0 /opt/microchip/xc32/v1.44/bin/bin/../../lib/gcc/pic32mx/4.8.3/../../../../pic32mx/lib/libpic32.a(vector2.o)
 .data          0x00000000        0x0 /opt/microchip/xc32/v1.44/bin/bin/../../lib/gcc/pic32mx/4.8.3/../../../../pic32mx/lib/libpic32.a(vector2.o)
 .bss           0x00000000        0x0 /opt/microchip/xc32/v1.44/bin/bin/../../lib/gcc/pic32mx/4.8.3/../../../../pic32mx/lib/libpic32.a(vector2.o)
 .reginfo       0x00000000       0x18 /opt/microchip/xc32/v1.44/bin/bin/../../lib/gcc/pic32mx/4.8.3/../../../../pic32mx/lib/libpic32.a(vector2.o)
 .text          0x00000000        0x0 /opt/microchip/xc32/v1.44/bin/bin/../../lib/gcc/pic32mx/4.8.3/../../../../pic32mx/lib/libpic32.a(vector3.o)
 .data          0x00000000        0x0 /opt/microchip/xc32/v1.44/bin/bin/../../lib/gcc/pic32mx/4.8.3/../../../../pic32mx/lib/libpic32.a(vector3.o)
 .bss           0x00000000        0x0 /opt/microchip/xc32/v1.44/bin/bin/../../lib/gcc/pic32mx/4.8.3/../../../../pic32mx/lib/libpic32.a(vector3.o)
 .reginfo       0x00000000       0x18 /opt/microchip/xc32/v1.44/bin/bin/../../lib/gcc/pic32mx/4.8.3/../../../../pic32mx/lib/libpic32.a(vector3.o)
 .text          0x00000000        0x0 /opt/microchip/xc32/v1.44/bin/bin/../../lib/gcc/pic32mx/4.8.3/../../../../pic32mx/lib/libpic32.a(vector4.o)
 .data          0x00000000        0x0 /opt/microchip/xc32/v1.44/bin/bin/../../lib/gcc/pic32mx/4.8.3/../../../../pic32mx/lib/libpic32.a(vector4.o)
 .bss           0x00000000        0x0 /opt/microchip/xc32/v1.44/bin/bin/../../lib/gcc/pic32mx/4.8.3/../../../../pic32mx/lib/libpic32.a(vector4.o)
 .reginfo       0x00000000       0x18 /opt/microchip/xc32/v1.44/bin/bin/../../lib/gcc/pic32mx/4.8.3/../../../../pic32mx/lib/libpic32.a(vector4.o)
 .text          0x00000000        0x0 /opt/microchip/xc32/v1.44/bin/bin/../../lib/gcc/pic32mx/4.8.3/../../../../pic32mx/lib/libpic32.a(vector5.o)
 .data          0x00000000        0x0 /opt/microchip/xc32/v1.44/bin/bin/../../lib/gcc/pic32mx/4.8.3/../../../../pic32mx/lib/libpic32.a(vector5.o)
 .bss           0x00000000        0x0 /opt/microchip/xc32/v1.44/bin/bin/../../lib/gcc/pic32mx/4.8.3/../../../../pic32mx/lib/libpic32.a(vector5.o)
 .reginfo       0x00000000       0x18 /opt/microchip/xc32/v1.44/bin/bin/../../lib/gcc/pic32mx/4.8.3/../../../../pic32mx/lib/libpic32.a(vector5.o)
 .text          0x00000000        0x0 /opt/microchip/xc32/v1.44/bin/bin/../../lib/gcc/pic32mx/4.8.3/../../../../pic32mx/lib/libpic32.a(vector7.o)
 .data          0x00000000        0x0 /opt/microchip/xc32/v1.44/bin/bin/../../lib/gcc/pic32mx/4.8.3/../../../../pic32mx/lib/libpic32.a(vector7.o)
 .bss           0x00000000        0x0 /opt/microchip/xc32/v1.44/bin/bin/../../lib/gcc/pic32mx/4.8.3/../../../../pic32mx/lib/libpic32.a(vector7.o)
 .reginfo       0x00000000       0x18 /opt/microchip/xc32/v1.44/bin/bin/../../lib/gcc/pic32mx/4.8.3/../../../../pic32mx/lib/libpic32.a(vector7.o)
 .text          0x00000000        0x0 /opt/microchip/xc32/v1.44/bin/bin/../../lib/gcc/pic32mx/4.8.3/../../../../pic32mx/lib/libpic32.a(vector9.o)
 .data          0x00000000        0x0 /opt/microchip/xc32/v1.44/bin/bin/../../lib/gcc/pic32mx/4.8.3/../../../../pic32mx/lib/libpic32.a(vector9.o)
 .bss           0x00000000        0x0 /opt/microchip/xc32/v1.44/bin/bin/../../lib/gcc/pic32mx/4.8.3/../../../../pic32mx/lib/libpic32.a(vector9.o)
 .reginfo       0x00000000       0x18 /opt/microchip/xc32/v1.44/bin/bin/../../lib/gcc/pic32mx/4.8.3/../../../../pic32mx/lib/libpic32.a(vector9.o)
 .text          0x00000000        0x0 /opt/microchip/xc32/v1.44/bin/bin/../../lib/gcc/pic32mx/4.8.3/../../../../pic32mx/lib/libpic32.a(vector11.o)
 .data          0x00000000        0x0 /opt/microchip/xc32/v1.44/bin/bin/../../lib/gcc/pic32mx/4.8.3/../../../../pic32mx/lib/libpic32.a(vector11.o)
 .bss           0x00000000        0x0 /opt/microchip/xc32/v1.44/bin/bin/../../lib/gcc/pic32mx/4.8.3/../../../../pic32mx/lib/libpic32.a(vector11.o)
 .reginfo       0x00000000       0x18 /opt/microchip/xc32/v1.44/bin/bin/../../lib/gcc/pic32mx/4.8.3/../../../../pic32mx/lib/libpic32.a(vector11.o)
 .text          0x00000000        0x0 /opt/microchip/xc32/v1.44/bin/bin/../../lib/gcc/pic32mx/4.8.3/../../../../pic32mx/lib/libpic32.a(vector12.o)
 .data          0x00000000        0x0 /opt/microchip/xc32/v1.44/bin/bin/../../lib/gcc/pic32mx/4.8.3/../../../../pic32mx/lib/libpic32.a(vector12.o)
 .bss           0x00000000        0x0 /opt/microchip/xc32/v1.44/bin/bin/../../lib/gcc/pic32mx/4.8.3/../../../../pic32mx/lib/libpic32.a(vector12.o)
 .reginfo       0x00000000       0x18 /opt/microchip/xc32/v1.44/bin/bin/../../lib/gcc/pic32mx/4.8.3/../../../../pic32mx/lib/libpic32.a(vector12.o)
 .text          0x00000000        0x0 /opt/microchip/xc32/v1.44/bin/bin/../../lib/gcc/pic32mx/4.8.3/../../../../pic32mx/lib/libpic32.a(vector13.o)
 .data          0x00000000        0x0 /opt/microchip/xc32/v1.44/bin/bin/../../lib/gcc/pic32mx/4.8.3/../../../../pic32mx/lib/libpic32.a(vector13.o)
 .bss           0x00000000        0x0 /opt/microchip/xc32/v1.44/bin/bin/../../lib/gcc/pic32mx/4.8.3/../../../../pic32mx/lib/libpic32.a(vector13.o)
 .reginfo       0x00000000       0x18 /opt/microchip/xc32/v1.44/bin/bin/../../lib/gcc/pic32mx/4.8.3/../../../../pic32mx/lib/libpic32.a(vector13.o)
 .text          0x00000000        0x0 /opt/microchip/xc32/v1.44/bin/bin/../../lib/gcc/pic32mx/4.8.3/../../../../pic32mx/lib/libpic32.a(vector14.o)
 .data          0x00000000        0x0 /opt/microchip/xc32/v1.44/bin/bin/../../lib/gcc/pic32mx/4.8.3/../../../../pic32mx/lib/libpic32.a(vector14.o)
 .bss           0x00000000        0x0 /opt/microchip/xc32/v1.44/bin/bin/../../lib/gcc/pic32mx/4.8.3/../../../../pic32mx/lib/libpic32.a(vector14.o)
 .reginfo       0x00000000       0x18 /opt/microchip/xc32/v1.44/bin/bin/../../lib/gcc/pic32mx/4.8.3/../../../../pic32mx/lib/libpic32.a(vector14.o)
 .text          0x00000000        0x0 /opt/microchip/xc32/v1.44/bin/bin/../../lib/gcc/pic32mx/4.8.3/../../../../pic32mx/lib/libpic32.a(vector15.o)
 .data          0x00000000        0x0 /opt/microchip/xc32/v1.44/bin/bin/../../lib/gcc/pic32mx/4.8.3/../../../../pic32mx/lib/libpic32.a(vector15.o)
 .bss           0x00000000        0x0 /opt/microchip/xc32/v1.44/bin/bin/../../lib/gcc/pic32mx/4.8.3/../../../../pic32mx/lib/libpic32.a(vector15.o)
 .reginfo       0x00000000       0x18 /opt/microchip/xc32/v1.44/bin/bin/../../lib/gcc/pic32mx/4.8.3/../../../../pic32mx/lib/libpic32.a(vector15.o)
 .text          0x00000000        0x0 /opt/microchip/xc32/v1.44/bin/bin/../../lib/gcc/pic32mx/4.8.3/../../../../pic32mx/lib/libpic32.a(vector16.o)
 .data          0x00000000        0x0 /opt/microchip/xc32/v1.44/bin/bin/../../lib/gcc/pic32mx/4.8.3/../../../../pic32mx/lib/libpic32.a(vector16.o)
 .bss           0x00000000        0x0 /opt/microchip/xc32/v1.44/bin/bin/../../lib/gcc/pic32mx/4.8.3/../../../../pic32mx/lib/libpic32.a(vector16.o)
 .reginfo       0x00000000       0x18 /opt/microchip/xc32/v1.44/bin/bin/../../lib/gcc/pic32mx/4.8.3/../../../../pic32mx/lib/libpic32.a(vector16.o)
 .text          0x00000000        0x0 /opt/microchip/xc32/v1.44/bin/bin/../../lib/gcc/pic32mx/4.8.3/../../../../pic32mx/lib/libpic32.a(vector17.o)
 .data          0x00000000        0x0 /opt/microchip/xc32/v1.44/bin/bin/../../lib/gcc/pic32mx/4.8.3/../../../../pic32mx/lib/libpic32.a(vector17.o)
 .bss           0x00000000        0x0 /opt/microchip/xc32/v1.44/bin/bin/../../lib/gcc/pic32mx/4.8.3/../../../../pic32mx/lib/libpic32.a(vector17.o)
 .reginfo       0x00000000       0x18 /opt/microchip/xc32/v1.44/bin/bin/../../lib/gcc/pic32mx/4.8.3/../../../../pic32mx/lib/libpic32.a(vector17.o)
 .text          0x00000000        0x0 /opt/microchip/xc32/v1.44/bin/bin/../../lib/gcc/pic32mx/4.8.3/../../../../pic32mx/lib/libpic32.a(vector18.o)
 .data          0x00000000        0x0 /opt/microchip/xc32/v1.44/bin/bin/../../lib/gcc/pic32mx/4.8.3/../../../../pic32mx/lib/libpic32.a(vector18.o)
 .bss           0x00000000        0x0 /opt/microchip/xc32/v1.44/bin/bin/../../lib/gcc/pic32mx/4.8.3/../../../../pic32mx/lib/libpic32.a(vector18.o)
 .reginfo       0x00000000       0x18 /opt/microchip/xc32/v1.44/bin/bin/../../lib/gcc/pic32mx/4.8.3/../../../../pic32mx/lib/libpic32.a(vector18.o)
 .text          0x00000000        0x0 /opt/microchip/xc32/v1.44/bin/bin/../../lib/gcc/pic32mx/4.8.3/../../../../pic32mx/lib/libpic32.a(vector19.o)
 .data          0x00000000        0x0 /opt/microchip/xc32/v1.44/bin/bin/../../lib/gcc/pic32mx/4.8.3/../../../../pic32mx/lib/libpic32.a(vector19.o)
 .bss           0x00000000        0x0 /opt/microchip/xc32/v1.44/bin/bin/../../lib/gcc/pic32mx/4.8.3/../../../../pic32mx/lib/libpic32.a(vector19.o)
 .reginfo       0x00000000       0x18 /opt/microchip/xc32/v1.44/bin/bin/../../lib/gcc/pic32mx/4.8.3/../../../../pic32mx/lib/libpic32.a(vector19.o)
 .text          0x00000000        0x0 /opt/microchip/xc32/v1.44/bin/bin/../../lib/gcc/pic32mx/4.8.3/../../../../pic32mx/lib/libpic32.a(vector20.o)
 .data          0x00000000        0x0 /opt/microchip/xc32/v1.44/bin/bin/../../lib/gcc/pic32mx/4.8.3/../../../../pic32mx/lib/libpic32.a(vector20.o)
 .bss           0x00000000        0x0 /opt/microchip/xc32/v1.44/bin/bin/../../lib/gcc/pic32mx/4.8.3/../../../../pic32mx/lib/libpic32.a(vector20.o)
 .reginfo       0x00000000       0x18 /opt/microchip/xc32/v1.44/bin/bin/../../lib/gcc/pic32mx/4.8.3/../../../../pic32mx/lib/libpic32.a(vector20.o)
 .text          0x00000000        0x0 /opt/microchip/xc32/v1.44/bin/bin/../../lib/gcc/pic32mx/4.8.3/../../../../pic32mx/lib/libpic32.a(vector21.o)
 .data          0x00000000        0x0 /opt/microchip/xc32/v1.44/bin/bin/../../lib/gcc/pic32mx/4.8.3/../../../../pic32mx/lib/libpic32.a(vector21.o)
 .bss           0x00000000        0x0 /opt/microchip/xc32/v1.44/bin/bin/../../lib/gcc/pic32mx/4.8.3/../../../../pic32mx/lib/libpic32.a(vector21.o)
 .reginfo       0x00000000       0x18 /opt/microchip/xc32/v1.44/bin/bin/../../lib/gcc/pic32mx/4.8.3/../../../../pic32mx/lib/libpic32.a(vector21.o)
 .text          0x00000000        0x0 /opt/microchip/xc32/v1.44/bin/bin/../../lib/gcc/pic32mx/4.8.3/../../../../pic32mx/lib/libpic32.a(vector22.o)
 .data          0x00000000        0x0 /opt/microchip/xc32/v1.44/bin/bin/../../lib/gcc/pic32mx/4.8.3/../../../../pic32mx/lib/libpic32.a(vector22.o)
 .bss           0x00000000        0x0 /opt/microchip/xc32/v1.44/bin/bin/../../lib/gcc/pic32mx/4.8.3/../../../../pic32mx/lib/libpic32.a(vector22.o)
 .reginfo       0x00000000       0x18 /opt/microchip/xc32/v1.44/bin/bin/../../lib/gcc/pic32mx/4.8.3/../../../../pic32mx/lib/libpic32.a(vector22.o)
 .text          0x00000000        0x0 /opt/microchip/xc32/v1.44/bin/bin/../../lib/gcc/pic32mx/4.8.3/../../../../pic32mx/lib/libpic32.a(vector23.o)
 .data          0x00000000        0x0 /opt/microchip/xc32/v1.44/bin/bin/../../lib/gcc/pic32mx/4.8.3/../../../../pic32mx/lib/libpic32.a(vector23.o)
 .bss           0x00000000        0x0 /opt/microchip/xc32/v1.44/bin/bin/../../lib/gcc/pic32mx/4.8.3/../../../../pic32mx/lib/libpic32.a(vector23.o)
 .reginfo       0x00000000       0x18 /opt/microchip/xc32/v1.44/bin/bin/../../lib/gcc/pic32mx/4.8.3/../../../../pic32mx/lib/libpic32.a(vector23.o)
 .text          0x00000000        0x0 /opt/microchip/xc32/v1.44/bin/bin/../../lib/gcc/pic32mx/4.8.3/../../../../pic32mx/lib/libpic32.a(vector26.o)
 .data          0x00000000        0x0 /opt/microchip/xc32/v1.44/bin/bin/../../lib/gcc/pic32mx/4.8.3/../../../../pic32mx/lib/libpic32.a(vector26.o)
 .bss           0x00000000        0x0 /opt/microchip/xc32/v1.44/bin/bin/../../lib/gcc/pic32mx/4.8.3/../../../../pic32mx/lib/libpic32.a(vector26.o)
 .reginfo       0x00000000       0x18 /opt/microchip/xc32/v1.44/bin/bin/../../lib/gcc/pic32mx/4.8.3/../../../../pic32mx/lib/libpic32.a(vector26.o)
 .text          0x00000000        0x0 /opt/microchip/xc32/v1.44/bin/bin/../../lib/gcc/pic32mx/4.8.3/../../../../pic32mx/lib/libpic32.a(vector27.o)
 .data          0x00000000        0x0 /opt/microchip/xc32/v1.44/bin/bin/../../lib/gcc/pic32mx/4.8.3/../../../../pic32mx/lib/libpic32.a(vector27.o)
 .bss           0x00000000        0x0 /opt/microchip/xc32/v1.44/bin/bin/../../lib/gcc/pic32mx/4.8.3/../../../../pic32mx/lib/libpic32.a(vector27.o)
 .reginfo       0x00000000       0x18 /opt/microchip/xc32/v1.44/bin/bin/../../lib/gcc/pic32mx/4.8.3/../../../../pic32mx/lib/libpic32.a(vector27.o)
 .text          0x00000000        0x0 /opt/microchip/xc32/v1.44/bin/bin/../../lib/gcc/pic32mx/4.8.3/../../../../pic32mx/lib/libpic32.a(vector28.o)
 .data          0x00000000        0x0 /opt/microchip/xc32/v1.44/bin/bin/../../lib/gcc/pic32mx/4.8.3/../../../../pic32mx/lib/libpic32.a(vector28.o)
 .bss           0x00000000        0x0 /opt/microchip/xc32/v1.44/bin/bin/../../lib/gcc/pic32mx/4.8.3/../../../../pic32mx/lib/libpic32.a(vector28.o)
 .reginfo       0x00000000       0x18 /opt/microchip/xc32/v1.44/bin/bin/../../lib/gcc/pic32mx/4.8.3/../../../../pic32mx/lib/libpic32.a(vector28.o)
 .text          0x00000000        0x0 /opt/microchip/xc32/v1.44/bin/bin/../../lib/gcc/pic32mx/4.8.3/../../../../pic32mx/lib/libpic32.a(vector29.o)
 .data          0x00000000        0x0 /opt/microchip/xc32/v1.44/bin/bin/../../lib/gcc/pic32mx/4.8.3/../../../../pic32mx/lib/libpic32.a(vector29.o)
 .bss           0x00000000        0x0 /opt/microchip/xc32/v1.44/bin/bin/../../lib/gcc/pic32mx/4.8.3/../../../../pic32mx/lib/libpic32.a(vector29.o)
 .reginfo       0x00000000       0x18 /opt/microchip/xc32/v1.44/bin/bin/../../lib/gcc/pic32mx/4.8.3/../../../../pic32mx/lib/libpic32.a(vector29.o)
 .text          0x00000000        0x0 /opt/microchip/xc32/v1.44/bin/bin/../../lib/gcc/pic32mx/4.8.3/../../../../pic32mx/lib/libpic32.a(vector30.o)
 .data          0x00000000        0x0 /opt/microchip/xc32/v1.44/bin/bin/../../lib/gcc/pic32mx/4.8.3/../../../../pic32mx/lib/libpic32.a(vector30.o)
 .bss           0x00000000        0x0 /opt/microchip/xc32/v1.44/bin/bin/../../lib/gcc/pic32mx/4.8.3/../../../../pic32mx/lib/libpic32.a(vector30.o)
 .reginfo       0x00000000       0x18 /opt/microchip/xc32/v1.44/bin/bin/../../lib/gcc/pic32mx/4.8.3/../../../../pic32mx/lib/libpic32.a(vector30.o)
 .text          0x00000000        0x0 /opt/microchip/xc32/v1.44/bin/bin/../../lib/gcc/pic32mx/4.8.3/../../../../pic32mx/lib/libpic32.a(vector32.o)
 .data          0x00000000        0x0 /opt/microchip/xc32/v1.44/bin/bin/../../lib/gcc/pic32mx/4.8.3/../../../../pic32mx/lib/libpic32.a(vector32.o)
 .bss           0x00000000        0x0 /opt/microchip/xc32/v1.44/bin/bin/../../lib/gcc/pic32mx/4.8.3/../../../../pic32mx/lib/libpic32.a(vector32.o)
 .reginfo       0x00000000       0x18 /opt/microchip/xc32/v1.44/bin/bin/../../lib/gcc/pic32mx/4.8.3/../../../../pic32mx/lib/libpic32.a(vector32.o)
 .text          0x00000000        0x0 /opt/microchip/xc32/v1.44/bin/bin/../../lib/gcc/pic32mx/4.8.3/../../../../pic32mx/lib/libpic32.a(vector33.o)
 .data          0x00000000        0x0 /opt/microchip/xc32/v1.44/bin/bin/../../lib/gcc/pic32mx/4.8.3/../../../../pic32mx/lib/libpic32.a(vector33.o)
 .bss           0x00000000        0x0 /opt/microchip/xc32/v1.44/bin/bin/../../lib/gcc/pic32mx/4.8.3/../../../../pic32mx/lib/libpic32.a(vector33.o)
 .reginfo       0x00000000       0x18 /opt/microchip/xc32/v1.44/bin/bin/../../lib/gcc/pic32mx/4.8.3/../../../../pic32mx/lib/libpic32.a(vector33.o)
 .text          0x00000000        0x0 /opt/microchip/xc32/v1.44/bin/bin/../../lib/gcc/pic32mx/4.8.3/../../../../pic32mx/lib/libpic32.a(vector34.o)
 .data          0x00000000        0x0 /opt/microchip/xc32/v1.44/bin/bin/../../lib/gcc/pic32mx/4.8.3/../../../../pic32mx/lib/libpic32.a(vector34.o)
 .bss           0x00000000        0x0 /opt/microchip/xc32/v1.44/bin/bin/../../lib/gcc/pic32mx/4.8.3/../../../../pic32mx/lib/libpic32.a(vector34.o)
 .reginfo       0x00000000       0x18 /opt/microchip/xc32/v1.44/bin/bin/../../lib/gcc/pic32mx/4.8.3/../../../../pic32mx/lib/libpic32.a(vector34.o)
 .text          0x00000000        0x0 /opt/microchip/xc32/v1.44/bin/bin/../../lib/gcc/pic32mx/4.8.3/../../../../pic32mx/lib/libpic32.a(vector35.o)
 .data          0x00000000        0x0 /opt/microchip/xc32/v1.44/bin/bin/../../lib/gcc/pic32mx/4.8.3/../../../../pic32mx/lib/libpic32.a(vector35.o)
 .bss           0x00000000        0x0 /opt/microchip/xc32/v1.44/bin/bin/../../lib/gcc/pic32mx/4.8.3/../../../../pic32mx/lib/libpic32.a(vector35.o)
 .reginfo       0x00000000       0x18 /opt/microchip/xc32/v1.44/bin/bin/../../lib/gcc/pic32mx/4.8.3/../../../../pic32mx/lib/libpic32.a(vector35.o)
 .text          0x00000000        0x0 /opt/microchip/xc32/v1.44/bin/bin/../../lib/gcc/pic32mx/4.8.3/../../../../pic32mx/lib/libpic32.a(vector36.o)
 .data          0x00000000        0x0 /opt/microchip/xc32/v1.44/bin/bin/../../lib/gcc/pic32mx/4.8.3/../../../../pic32mx/lib/libpic32.a(vector36.o)
 .bss           0x00000000        0x0 /opt/microchip/xc32/v1.44/bin/bin/../../lib/gcc/pic32mx/4.8.3/../../../../pic32mx/lib/libpic32.a(vector36.o)
 .reginfo       0x00000000       0x18 /opt/microchip/xc32/v1.44/bin/bin/../../lib/gcc/pic32mx/4.8.3/../../../../pic32mx/lib/libpic32.a(vector36.o)
 .text          0x00000000        0x0 /opt/microchip/xc32/v1.44/bin/bin/../../lib/gcc/pic32mx/4.8.3/../../../../pic32mx/lib/libpic32.a(vector37.o)
 .data          0x00000000        0x0 /opt/microchip/xc32/v1.44/bin/bin/../../lib/gcc/pic32mx/4.8.3/../../../../pic32mx/lib/libpic32.a(vector37.o)
 .bss           0x00000000        0x0 /opt/microchip/xc32/v1.44/bin/bin/../../lib/gcc/pic32mx/4.8.3/../../../../pic32mx/lib/libpic32.a(vector37.o)
 .reginfo       0x00000000       0x18 /opt/microchip/xc32/v1.44/bin/bin/../../lib/gcc/pic32mx/4.8.3/../../../../pic32mx/lib/libpic32.a(vector37.o)
 .text          0x00000000        0x0 /opt/microchip/xc32/v1.44/bin/bin/../../lib/gcc/pic32mx/4.8.3/../../../../pic32mx/lib/libpic32.a(vector38.o)
 .data          0x00000000        0x0 /opt/microchip/xc32/v1.44/bin/bin/../../lib/gcc/pic32mx/4.8.3/../../../../pic32mx/lib/libpic32.a(vector38.o)
 .bss           0x00000000        0x0 /opt/microchip/xc32/v1.44/bin/bin/../../lib/gcc/pic32mx/4.8.3/../../../../pic32mx/lib/libpic32.a(vector38.o)
 .reginfo       0x00000000       0x18 /opt/microchip/xc32/v1.44/bin/bin/../../lib/gcc/pic32mx/4.8.3/../../../../pic32mx/lib/libpic32.a(vector38.o)
 .text          0x00000000        0x0 /opt/microchip/xc32/v1.44/bin/bin/../../lib/gcc/pic32mx/4.8.3/../../../../pic32mx/lib/libpic32.a(vector39.o)
 .data          0x00000000        0x0 /opt/microchip/xc32/v1.44/bin/bin/../../lib/gcc/pic32mx/4.8.3/../../../../pic32mx/lib/libpic32.a(vector39.o)
 .bss           0x00000000        0x0 /opt/microchip/xc32/v1.44/bin/bin/../../lib/gcc/pic32mx/4.8.3/../../../../pic32mx/lib/libpic32.a(vector39.o)
 .reginfo       0x00000000       0x18 /opt/microchip/xc32/v1.44/bin/bin/../../lib/gcc/pic32mx/4.8.3/../../../../pic32mx/lib/libpic32.a(vector39.o)
 .text          0x00000000        0x0 /opt/microchip/xc32/v1.44/bin/bin/../../lib/gcc/pic32mx/4.8.3/../../../../pic32mx/lib/libpic32.a(vector40.o)
 .data          0x00000000        0x0 /opt/microchip/xc32/v1.44/bin/bin/../../lib/gcc/pic32mx/4.8.3/../../../../pic32mx/lib/libpic32.a(vector40.o)
 .bss           0x00000000        0x0 /opt/microchip/xc32/v1.44/bin/bin/../../lib/gcc/pic32mx/4.8.3/../../../../pic32mx/lib/libpic32.a(vector40.o)
 .reginfo       0x00000000       0x18 /opt/microchip/xc32/v1.44/bin/bin/../../lib/gcc/pic32mx/4.8.3/../../../../pic32mx/lib/libpic32.a(vector40.o)
 .text          0x00000000        0x0 /opt/microchip/xc32/v1.44/bin/bin/../../lib/gcc/pic32mx/4.8.3/../../../../pic32mx/lib/libpic32.a(vector41.o)
 .data          0x00000000        0x0 /opt/microchip/xc32/v1.44/bin/bin/../../lib/gcc/pic32mx/4.8.3/../../../../pic32mx/lib/libpic32.a(vector41.o)
 .bss           0x00000000        0x0 /opt/microchip/xc32/v1.44/bin/bin/../../lib/gcc/pic32mx/4.8.3/../../../../pic32mx/lib/libpic32.a(vector41.o)
 .reginfo       0x00000000       0x18 /opt/microchip/xc32/v1.44/bin/bin/../../lib/gcc/pic32mx/4.8.3/../../../../pic32mx/lib/libpic32.a(vector41.o)
 .text          0x00000000        0x0 /opt/microchip/xc32/v1.44/bin/bin/../../lib/gcc/pic32mx/4.8.3/../../../../pic32mx/lib/libpic32.a(vector42.o)
 .data          0x00000000        0x0 /opt/microchip/xc32/v1.44/bin/bin/../../lib/gcc/pic32mx/4.8.3/../../../../pic32mx/lib/libpic32.a(vector42.o)
 .bss           0x00000000        0x0 /opt/microchip/xc32/v1.44/bin/bin/../../lib/gcc/pic32mx/4.8.3/../../../../pic32mx/lib/libpic32.a(vector42.o)
 .reginfo       0x00000000       0x18 /opt/microchip/xc32/v1.44/bin/bin/../../lib/gcc/pic32mx/4.8.3/../../../../pic32mx/lib/libpic32.a(vector42.o)
 .text          0x00000000        0x0 /opt/microchip/xc32/v1.44/bin/bin/../../lib/gcc/pic32mx/4.8.3/../../../../pic32mx/lib/libpic32.a(vector43.o)
 .data          0x00000000        0x0 /opt/microchip/xc32/v1.44/bin/bin/../../lib/gcc/pic32mx/4.8.3/../../../../pic32mx/lib/libpic32.a(vector43.o)
 .bss           0x00000000        0x0 /opt/microchip/xc32/v1.44/bin/bin/../../lib/gcc/pic32mx/4.8.3/../../../../pic32mx/lib/libpic32.a(vector43.o)
 .reginfo       0x00000000       0x18 /opt/microchip/xc32/v1.44/bin/bin/../../lib/gcc/pic32mx/4.8.3/../../../../pic32mx/lib/libpic32.a(vector43.o)
 .text          0x00000000        0x0 /opt/microchip/xc32/v1.44/bin/bin/../../lib/gcc/pic32mx/4.8.3/../../../../pic32mx/lib/libpic32.a(vector44.o)
 .data          0x00000000        0x0 /opt/microchip/xc32/v1.44/bin/bin/../../lib/gcc/pic32mx/4.8.3/../../../../pic32mx/lib/libpic32.a(vector44.o)
 .bss           0x00000000        0x0 /opt/microchip/xc32/v1.44/bin/bin/../../lib/gcc/pic32mx/4.8.3/../../../../pic32mx/lib/libpic32.a(vector44.o)
 .reginfo       0x00000000       0x18 /opt/microchip/xc32/v1.44/bin/bin/../../lib/gcc/pic32mx/4.8.3/../../../../pic32mx/lib/libpic32.a(vector44.o)
 .text          0x00000000        0x0 /opt/microchip/xc32/v1.44/bin/bin/../../lib/gcc/pic32mx/4.8.3/../../../../pic32mx/lib/libpic32.a(defaultinterrupt.o)
 .data          0x00000000        0x0 /opt/microchip/xc32/v1.44/bin/bin/../../lib/gcc/pic32mx/4.8.3/../../../../pic32mx/lib/libpic32.a(defaultinterrupt.o)
 .bss           0x00000000        0x0 /opt/microchip/xc32/v1.44/bin/bin/../../lib/gcc/pic32mx/4.8.3/../../../../pic32mx/lib/libpic32.a(defaultinterrupt.o)
 .reginfo       0x00000000       0x18 /opt/microchip/xc32/v1.44/bin/bin/../../lib/gcc/pic32mx/4.8.3/../../../../pic32mx/lib/libpic32.a(defaultinterrupt.o)
 .text          0x00000000        0x0 /opt/microchip/xc32/v1.44/bin/bin/../../lib/gcc/pic32mx/4.8.3/../../../../pic32mx/lib/libc.a(sprintf_cdnopsuxX.eo)
 .data          0x00000000        0x0 /opt/microchip/xc32/v1.44/bin/bin/../../lib/gcc/pic32mx/4.8.3/../../../../pic32mx/lib/libc.a(sprintf_cdnopsuxX.eo)
 .bss           0x00000000        0x0 /opt/microchip/xc32/v1.44/bin/bin/../../lib/gcc/pic32mx/4.8.3/../../../../pic32mx/lib/libc.a(sprintf_cdnopsuxX.eo)
 .reginfo       0x00000000       0x18 /opt/microchip/xc32/v1.44/bin/bin/../../lib/gcc/pic32mx/4.8.3/../../../../pic32mx/lib/libc.a(sprintf_cdnopsuxX.eo)
 .text          0x00000000        0x0 /opt/microchip/xc32/v1.44/bin/bin/../../lib/gcc/pic32mx/4.8.3/../../../../pic32mx/lib/libc.a(doprnt_cdnopsuxX.eo)
 .data          0x00000000        0x0 /opt/microchip/xc32/v1.44/bin/bin/../../lib/gcc/pic32mx/4.8.3/../../../../pic32mx/lib/libc.a(doprnt_cdnopsuxX.eo)
 .bss           0x00000000        0x0 /opt/microchip/xc32/v1.44/bin/bin/../../lib/gcc/pic32mx/4.8.3/../../../../pic32mx/lib/libc.a(doprnt_cdnopsuxX.eo)
 .reginfo       0x00000000       0x18 /opt/microchip/xc32/v1.44/bin/bin/../../lib/gcc/pic32mx/4.8.3/../../../../pic32mx/lib/libc.a(doprnt_cdnopsuxX.eo)
 .text          0x00000000        0x0 /opt/microchip/xc32/v1.44/bin/bin/../../lib/gcc/pic32mx/4.8.3/../../../../pic32mx/lib/libc.a(_fputc_simple.o)
 .data          0x00000000        0x0 /opt/microchip/xc32/v1.44/bin/bin/../../lib/gcc/pic32mx/4.8.3/../../../../pic32mx/lib/libc.a(_fputc_simple.o)
 .bss           0x00000000        0x0 /opt/microchip/xc32/v1.44/bin/bin/../../lib/gcc/pic32mx/4.8.3/../../../../pic32mx/lib/libc.a(_fputc_simple.o)
 .reginfo       0x00000000       0x18 /opt/microchip/xc32/v1.44/bin/bin/../../lib/gcc/pic32mx/4.8.3/../../../../pic32mx/lib/libc.a(_fputc_simple.o)
 .text          0x00000000        0x0 /opt/microchip/xc32/v1.44/bin/bin/../../lib/gcc/pic32mx/4.8.3/../../../../pic32mx/lib/libc.a(ctype.o)
 .data          0x00000000        0x0 /opt/microchip/xc32/v1.44/bin/bin/../../lib/gcc/pic32mx/4.8.3/../../../../pic32mx/lib/libc.a(ctype.o)
 .bss           0x00000000        0x0 /opt/microchip/xc32/v1.44/bin/bin/../../lib/gcc/pic32mx/4.8.3/../../../../pic32mx/lib/libc.a(ctype.o)
 .reginfo       0x00000000       0x18 /opt/microchip/xc32/v1.44/bin/bin/../../lib/gcc/pic32mx/4.8.3/../../../../pic32mx/lib/libc.a(ctype.o)
 .text          0x00000000        0x0 /opt/microchip/xc32/v1.44/bin/bin/../../lib/gcc/pic32mx/4.8.3/../../../../pic32mx/lib/libc.a(_iob.o)
 .data          0x00000000       0xa4 /opt/microchip/xc32/v1.44/bin/bin/../../lib/gcc/pic32mx/4.8.3/../../../../pic32mx/lib/libc.a(_iob.o)
 .reginfo       0x00000000       0x18 /opt/microchip/xc32/v1.44/bin/bin/../../lib/gcc/pic32mx/4.8.3/../../../../pic32mx/lib/libc.a(_iob.o)
 .text          0x00000000        0x0 /opt/microchip/xc32/v1.44/bin/bin/../../lib/gcc/pic32mx/4.8.3/../../../../pic32mx/lib/libc.a(_flsbuf_simple.o)
 .data          0x00000000        0x0 /opt/microchip/xc32/v1.44/bin/bin/../../lib/gcc/pic32mx/4.8.3/../../../../pic32mx/lib/libc.a(_flsbuf_simple.o)
 .bss           0x00000000        0x0 /opt/microchip/xc32/v1.44/bin/bin/../../lib/gcc/pic32mx/4.8.3/../../../../pic32mx/lib/libc.a(_flsbuf_simple.o)
 .reginfo       0x00000000       0x18 /opt/microchip/xc32/v1.44/bin/bin/../../lib/gcc/pic32mx/4.8.3/../../../../pic32mx/lib/libc.a(_flsbuf_simple.o)
 .text          0x00000000        0x0 /opt/microchip/xc32/v1.44/bin/bin/../../lib/gcc/pic32mx/4.8.3/../../../../pic32mx/lib/libm.a(fp32div.o)
 .data          0x00000000        0x0 /opt/microchip/xc32/v1.44/bin/bin/../../lib/gcc/pic32mx/4.8.3/../../../../pic32mx/lib/libm.a(fp32div.o)
 .bss           0x00000000        0x0 /opt/microchip/xc32/v1.44/bin/bin/../../lib/gcc/pic32mx/4.8.3/../../../../pic32mx/lib/libm.a(fp32div.o)
 .reginfo       0x00000000       0x18 /opt/microchip/xc32/v1.44/bin/bin/../../lib/gcc/pic32mx/4.8.3/../../../../pic32mx/lib/libm.a(fp32div.o)
 .text          0x00000000        0x0 /opt/microchip/xc32/v1.44/bin/bin/../../lib/gcc/pic32mx/4.8.3/../../../../pic32mx/lib/libm.a(fp32mul.o)
 .data          0x00000000        0x0 /opt/microchip/xc32/v1.44/bin/bin/../../lib/gcc/pic32mx/4.8.3/../../../../pic32mx/lib/libm.a(fp32mul.o)
 .bss           0x00000000        0x0 /opt/microchip/xc32/v1.44/bin/bin/../../lib/gcc/pic32mx/4.8.3/../../../../pic32mx/lib/libm.a(fp32mul.o)
 .reginfo       0x00000000       0x18 /opt/microchip/xc32/v1.44/bin/bin/../../lib/gcc/pic32mx/4.8.3/../../../../pic32mx/lib/libm.a(fp32mul.o)
 .text          0x00000000        0x0 /opt/microchip/xc32/v1.44/bin/bin/../../lib/gcc/pic32mx/4.8.3/../../../../pic32mx/lib/libm.a(fp32subadd.o)
 .data          0x00000000        0x0 /opt/microchip/xc32/v1.44/bin/bin/../../lib/gcc/pic32mx/4.8.3/../../../../pic32mx/lib/libm.a(fp32subadd.o)
 .bss           0x00000000        0x0 /opt/microchip/xc32/v1.44/bin/bin/../../lib/gcc/pic32mx/4.8.3/../../../../pic32mx/lib/libm.a(fp32subadd.o)
 .reginfo       0x00000000       0x18 /opt/microchip/xc32/v1.44/bin/bin/../../lib/gcc/pic32mx/4.8.3/../../../../pic32mx/lib/libm.a(fp32subadd.o)
 .text          0x00000000        0x0 /opt/microchip/xc32/v1.44/bin/bin/../../lib/gcc/pic32mx/4.8.3/../../../../pic32mx/lib/libm.a(fptoul.o)
 .data          0x00000000        0x0 /opt/microchip/xc32/v1.44/bin/bin/../../lib/gcc/pic32mx/4.8.3/../../../../pic32mx/lib/libm.a(fptoul.o)
 .bss           0x00000000        0x0 /opt/microchip/xc32/v1.44/bin/bin/../../lib/gcc/pic32mx/4.8.3/../../../../pic32mx/lib/libm.a(fptoul.o)
 .reginfo       0x00000000       0x18 /opt/microchip/xc32/v1.44/bin/bin/../../lib/gcc/pic32mx/4.8.3/../../../../pic32mx/lib/libm.a(fptoul.o)
 .text          0x00000000        0x0 /opt/microchip/xc32/v1.44/bin/bin/../../lib/gcc/pic32mx/4.8.3/../../../../pic32mx/lib/libm.a(sitofp.o)
 .data          0x00000000        0x0 /opt/microchip/xc32/v1.44/bin/bin/../../lib/gcc/pic32mx/4.8.3/../../../../pic32mx/lib/libm.a(sitofp.o)
 .bss           0x00000000        0x0 /opt/microchip/xc32/v1.44/bin/bin/../../lib/gcc/pic32mx/4.8.3/../../../../pic32mx/lib/libm.a(sitofp.o)
 .reginfo       0x00000000       0x18 /opt/microchip/xc32/v1.44/bin/bin/../../lib/gcc/pic32mx/4.8.3/../../../../pic32mx/lib/libm.a(sitofp.o)
 .data          0x00000000        0x0 /opt/microchip/xc32/v1.44/bin/bin/../../lib/gcc/pic32mx/4.8.3/libgcc.a(_udivdi3.o)
 .bss           0x00000000        0x0 /opt/microchip/xc32/v1.44/bin/bin/../../lib/gcc/pic32mx/4.8.3/libgcc.a(_udivdi3.o)
 .reginfo       0x00000000       0x18 /opt/microchip/xc32/v1.44/bin/bin/../../lib/gcc/pic32mx/4.8.3/libgcc.a(_udivdi3.o)
 .data          0x00000000        0x0 /opt/microchip/xc32/v1.44/bin/bin/../../lib/gcc/pic32mx/4.8.3/libgcc.a(_umoddi3.o)
 .bss           0x00000000        0x0 /opt/microchip/xc32/v1.44/bin/bin/../../lib/gcc/pic32mx/4.8.3/libgcc.a(_umoddi3.o)
 .reginfo       0x00000000       0x18 /opt/microchip/xc32/v1.44/bin/bin/../../lib/gcc/pic32mx/4.8.3/libgcc.a(_umoddi3.o)
 .text          0x00000000        0x0 /opt/microchip/xc32/v1.44/bin/bin/../../lib/gcc/pic32mx/4.8.3/../../../../pic32mx/lib/libpic32.a(write.o)
 .data          0x00000000        0x0 /opt/microchip/xc32/v1.44/bin/bin/../../lib/gcc/pic32mx/4.8.3/../../../../pic32mx/lib/libpic32.a(write.o)
 .bss           0x00000000        0x0 /opt/microchip/xc32/v1.44/bin/bin/../../lib/gcc/pic32mx/4.8.3/../../../../pic32mx/lib/libpic32.a(write.o)
 .reginfo       0x00000000       0x18 /opt/microchip/xc32/v1.44/bin/bin/../../lib/gcc/pic32mx/4.8.3/../../../../pic32mx/lib/libpic32.a(write.o)
 .text          0x00000000        0x0 /opt/microchip/xc32/v1.44/bin/bin/../../lib/gcc/pic32mx/4.8.3/../../../../pic32mx/lib/libpic32.a(_mon_putc.o)
 .data          0x00000000        0x0 /opt/microchip/xc32/v1.44/bin/bin/../../lib/gcc/pic32mx/4.8.3/../../../../pic32mx/lib/libpic32.a(_mon_putc.o)
 .bss           0x00000000        0x0 /opt/microchip/xc32/v1.44/bin/bin/../../lib/gcc/pic32mx/4.8.3/../../../../pic32mx/lib/libpic32.a(_mon_putc.o)
 .reginfo       0x00000000       0x18 /opt/microchip/xc32/v1.44/bin/bin/../../lib/gcc/pic32mx/4.8.3/../../../../pic32mx/lib/libpic32.a(_mon_putc.o)
 .text          0x00000000        0x0 /opt/microchip/xc32/v1.44/bin/bin/../../lib/gcc/pic32mx/4.8.3/../../../../pic32mx/lib/libpic32.a(xc32_uart.o)
 .data          0x00000000        0x0 /opt/microchip/xc32/v1.44/bin/bin/../../lib/gcc/pic32mx/4.8.3/../../../../pic32mx/lib/libpic32.a(xc32_uart.o)
 .bss           0x00000000        0x0 /opt/microchip/xc32/v1.44/bin/bin/../../lib/gcc/pic32mx/4.8.3/../../../../pic32mx/lib/libpic32.a(xc32_uart.o)
 .reginfo       0x00000000       0x18 /opt/microchip/xc32/v1.44/bin/bin/../../lib/gcc/pic32mx/4.8.3/../../../../pic32mx/lib/libpic32.a(xc32_uart.o)

Memory Configuration

Name             Origin             Length             Attributes
kseg0_program_mem 0x9d000000         0x00020000         xr
kseg0_boot_mem   0x9fc00490         0x00000970
exception_mem    0x9fc01000         0x00001000
kseg1_boot_mem   0xbfc00000         0x00000490
debug_exec_mem   0xbfc02000         0x00000ff0
config3          0xbfc02ff0         0x00000004
config2          0xbfc02ff4         0x00000004
config1          0xbfc02ff8         0x00000004
config0          0xbfc02ffc         0x00000004
kseg1_data_mem   0xa0000000         0x00004000         w !x
sfrs             0xbf800000         0x00100000
configsfrs       0xbfc02ff0         0x00000010
*default*        0x00000000         0xffffffff

Linker script and memory map

LOAD /opt/microchip/xc32/v1.44/bin/bin/../../lib/gcc/pic32mx/4.8.3/../../../../pic32mx/lib/./proc/32MX320F128H/crt0_mips32r2.o
LOAD /opt/microchip/xc32/v1.44/bin/bin/../../lib/gcc/pic32mx/4.8.3/../../../../pic32mx/lib/debug-exception-return.o
LOAD build/default/production/ChrFont0.o
LOAD build/default/production/FillPat.o
LOAD build/default/production/OledChar.o
LOAD build/default/production/OledDriver.o
LOAD build/default/production/OledGrph.o
LOAD build/default/production/_ext/1047219354/drv_oc_mapping.o
LOAD build/default/production/_ext/1047219354/drv_oc_static.o
LOAD build/default/production/_ext/977502197/drv_spi_tasks.o
LOAD build/default/production/_ext/977502197/drv_spi_api.o
LOAD build/default/production/_ext/977502197/drv_spi_master_rm_tasks.o
LOAD build/default/production/_ext/1407244131/drv_tmr_static.o
LOAD build/default/production/_ext/1407244131/drv_tmr_mapping.o
LOAD build/default/production/_ext/639803181/sys_clk.o
LOAD build/default/production/_ext/639803181/sys_clk_pic32mx.o
LOAD build/default/production/_ext/340578644/sys_devcon.o
LOAD build/default/production/_ext/340578644/sys_devcon_pic32mx.o
LOAD build/default/production/_ext/822048611/sys_ports_static.o
LOAD build/default/production/_ext/1688732426/system_init.o
LOAD build/default/production/_ext/1688732426/system_interrupt.o
LOAD build/default/production/_ext/1688732426/system_exceptions.o
LOAD build/default/production/_ext/1688732426/system_tasks.o
LOAD build/default/production/_ext/1360937237/app.o
LOAD build/default/production/_ext/1360937237/main.o
LOAD build/default/production/_ext/1360937237/bioshield.o
LOAD build/default/production/_ext/1360937237/orient.o
LOAD build/default/production/_ext/1022305019/drv_i2c.o
LOAD build/default/production/_ext/1871970537/drv_spi.o
LOAD build/default/production/_ext/1805174553/drv_spi_sys_queue_fifo.o
LOAD build/default/production/_ext/1590698352/drv_usart.o
LOAD build/default/production/_ext/1590698352/drv_usart_byte_model.o
LOAD build/default/production/_ext/2147425457/sys_int_pic32.o
LOAD ../../../../../../root/microchip/harmony/v2_02_00b/bin/framework/peripheral/PIC32MX320F128H_peripherals.a
                0x00000001                __MPLAB_BUILD = 0x1
                0x00000000                _min_heap_size = 0x0
LOAD /opt/microchip/xc32/v1.44/bin/bin/../../lib/gcc/pic32mx/4.8.3/../../../../pic32mx/lib/./proc/32MX320F128H/default_isr_vectors.o
LOAD /opt/microchip/xc32/v1.44/bin/bin/../../lib/gcc/pic32mx/4.8.3/../../../../pic32mx/lib/pic32_software_reset.o
                0x00000400                PROVIDE (_min_stack_size, 0x400)
LOAD /opt/microchip/xc32/v1.44/bin/bin/../../lib/gcc/pic32mx/4.8.3/../../../../pic32mx/lib/./proc/32MX320F128H/processor.o
START GROUP
LOAD libmchp_peripheral.a
END GROUP
START GROUP
LOAD libmchp_peripheral_32MX320F128H.a
END GROUP
                0x00000001                PROVIDE (_vector_spacing, 0x1)
                0x9fc01000                PROVIDE (_ebase_address, 0x9fc01000)
                0xbfc00000                _RESET_ADDR = 0xbfc00000
                0xbfc00380                _BEV_EXCPT_ADDR = 0xbfc00380
                0xbfc00480                _DBG_EXCPT_ADDR = 0xbfc00480
                0xbfc02000                _DBG_CODE_ADDR = 0xbfc02000
                0x00000ff0                _DBG_CODE_SIZE = 0xff0
                0x9fc01180                _GEN_EXCPT_ADDR = (_ebase_address + 0x180)

.config_BFC02FF0
                0xbfc02ff0        0x4
 *(.config_BFC02FF0)
 .config_BFC02FF0
                0xbfc02ff0        0x4 build/default/production/_ext/1688732426/system_init.o

.config_BFC02FF4
                0xbfc02ff4        0x4
 *(.config_BFC02FF4)
 .config_BFC02FF4
                0xbfc02ff4        0x4 build/default/production/_ext/1688732426/system_init.o

.config_BFC02FF8
                0xbfc02ff8        0x4
 *(.config_BFC02FF8)
 .config_BFC02FF8
                0xbfc02ff8        0x4 build/default/production/_ext/1688732426/system_init.o

.config_BFC02FFC
                0xbfc02ffc        0x4
 *(.config_BFC02FFC)
 .config_BFC02FFC
                0xbfc02ffc        0x4 build/default/production/_ext/1688732426/system_init.o
                0xbfc02000                PROVIDE (_DBG_CODE_ADDR, 0xbfc02000)
                0x00000ff0                PROVIDE (_DBG_CODE_SIZE, 0xff0)

.reset          0xbfc00000      0x208
 *(.reset)
 .reset         0xbfc00000        0x8 /opt/microchip/xc32/v1.44/bin/bin/../../lib/gcc/pic32mx/4.8.3/../../../../pic32mx/lib/./proc/32MX320F128H/crt0_mips32r2.o
                0xbfc00000                _reset
 *(.reset.startup)
 .reset.startup
                0xbfc00008      0x200 /opt/microchip/xc32/v1.44/bin/bin/../../lib/gcc/pic32mx/4.8.3/../../../../pic32mx/lib/./proc/32MX320F128H/crt0_mips32r2.o
                0xbfc00008                _startup

.bev_excpt      0xbfc00380       0x10
 *(.bev_handler)
 .bev_handler   0xbfc00380       0x10 /opt/microchip/xc32/v1.44/bin/bin/../../lib/gcc/pic32mx/4.8.3/../../../../pic32mx/lib/./proc/32MX320F128H/crt0_mips32r2.o

.dbg_excpt      0xbfc00480        0x0
                0xbfc00480                . = (. + DEFINED (_DEBUGGER)?0x8:0x0)

.dbg_code       0xbfc02000        0x0
                0xbfc02000                . = (. + DEFINED (_DEBUGGER)?_DBG_CODE_SIZE:0x0)

.app_excpt      0x9fc01180       0x10
 *(.gen_handler)
 .gen_handler   0x9fc01180       0x10 /opt/microchip/xc32/v1.44/bin/bin/../../lib/gcc/pic32mx/4.8.3/../../../../pic32mx/lib/./proc/32MX320F128H/crt0_mips32r2.o

.vector_0       0x9fc01200        0x8
 *(.vector_0)
 .vector_0      0x9fc01200        0x8 /opt/microchip/xc32/v1.44/bin/bin/../../lib/gcc/pic32mx/4.8.3/../../../../pic32mx/lib/libpic32.a(vector0.o)
                0x9fc01200                __vector_dispatch_0
                0x00000001                ASSERT (((_vector_spacing == 0x0) || (SIZEOF (.vector_0) <= (_vector_spacing << 0x5))), function at exception vector 0 too large)

.vector_1       0x9fc01220        0x8
 *(.vector_1)
 .vector_1      0x9fc01220        0x8 /opt/microchip/xc32/v1.44/bin/bin/../../lib/gcc/pic32mx/4.8.3/../../../../pic32mx/lib/libpic32.a(vector1.o)
                0x9fc01220                __vector_dispatch_1
                0x00000001                ASSERT (((_vector_spacing == 0x0) || (SIZEOF (.vector_1) <= (_vector_spacing << 0x5))), function at exception vector 1 too large)

.vector_2       0x9fc01240        0x8
 *(.vector_2)
 .vector_2      0x9fc01240        0x8 /opt/microchip/xc32/v1.44/bin/bin/../../lib/gcc/pic32mx/4.8.3/../../../../pic32mx/lib/libpic32.a(vector2.o)
                0x9fc01240                __vector_dispatch_2
                0x00000001                ASSERT (((_vector_spacing == 0x0) || (SIZEOF (.vector_2) <= (_vector_spacing << 0x5))), function at exception vector 2 too large)

.vector_3       0x9fc01260        0x8
 *(.vector_3)
 .vector_3      0x9fc01260        0x8 /opt/microchip/xc32/v1.44/bin/bin/../../lib/gcc/pic32mx/4.8.3/../../../../pic32mx/lib/libpic32.a(vector3.o)
                0x9fc01260                __vector_dispatch_3
                0x00000001                ASSERT (((_vector_spacing == 0x0) || (SIZEOF (.vector_3) <= (_vector_spacing << 0x5))), function at exception vector 3 too large)

.vector_4       0x9fc01280        0x8
 *(.vector_4)
 .vector_4      0x9fc01280        0x8 /opt/microchip/xc32/v1.44/bin/bin/../../lib/gcc/pic32mx/4.8.3/../../../../pic32mx/lib/libpic32.a(vector4.o)
                0x9fc01280                __vector_dispatch_4
                0x00000001                ASSERT (((_vector_spacing == 0x0) || (SIZEOF (.vector_4) <= (_vector_spacing << 0x5))), function at exception vector 4 too large)

.vector_5       0x9fc012a0        0x8
 *(.vector_5)
 .vector_5      0x9fc012a0        0x8 /opt/microchip/xc32/v1.44/bin/bin/../../lib/gcc/pic32mx/4.8.3/../../../../pic32mx/lib/libpic32.a(vector5.o)
                0x9fc012a0                __vector_dispatch_5
                0x00000001                ASSERT (((_vector_spacing == 0x0) || (SIZEOF (.vector_5) <= (_vector_spacing << 0x5))), function at exception vector 5 too large)

.vector_6       0x9fc012c0        0x8
 *(.vector_6)
 .vector_6      0x9fc012c0        0x8 build/default/production/_ext/1688732426/system_interrupt.o
                0x9fc012c0                __vector_dispatch_6
                0x00000001                ASSERT (((_vector_spacing == 0x0) || (SIZEOF (.vector_6) <= (_vector_spacing << 0x5))), function at exception vector 6 too large)

.vector_7       0x9fc012e0        0x8
 *(.vector_7)
 .vector_7      0x9fc012e0        0x8 /opt/microchip/xc32/v1.44/bin/bin/../../lib/gcc/pic32mx/4.8.3/../../../../pic32mx/lib/libpic32.a(vector7.o)
                0x9fc012e0                __vector_dispatch_7
                0x00000001                ASSERT (((_vector_spacing == 0x0) || (SIZEOF (.vector_7) <= (_vector_spacing << 0x5))), function at exception vector 7 too large)

.vector_8       0x9fc01300        0x8
 *(.vector_8)
 .vector_8      0x9fc01300        0x8 build/default/production/_ext/1688732426/system_interrupt.o
                0x9fc01300                __vector_dispatch_8
                0x00000001                ASSERT (((_vector_spacing == 0x0) || (SIZEOF (.vector_8) <= (_vector_spacing << 0x5))), function at exception vector 8 too large)

.vector_9       0x9fc01320        0x8
 *(.vector_9)
 .vector_9      0x9fc01320        0x8 /opt/microchip/xc32/v1.44/bin/bin/../../lib/gcc/pic32mx/4.8.3/../../../../pic32mx/lib/libpic32.a(vector9.o)
                0x9fc01320                __vector_dispatch_9
                0x00000001                ASSERT (((_vector_spacing == 0x0) || (SIZEOF (.vector_9) <= (_vector_spacing << 0x5))), function at exception vector 9 too large)

.vector_10      0x9fc01340        0x8
 *(.vector_10)
 .vector_10     0x9fc01340        0x8 build/default/production/_ext/1688732426/system_interrupt.o
                0x9fc01340                __vector_dispatch_10
                0x00000001                ASSERT (((_vector_spacing == 0x0) || (SIZEOF (.vector_10) <= (_vector_spacing << 0x5))), function at exception vector 10 too large)

.vector_11      0x9fc01360        0x8
 *(.vector_11)
 .vector_11     0x9fc01360        0x8 /opt/microchip/xc32/v1.44/bin/bin/../../lib/gcc/pic32mx/4.8.3/../../../../pic32mx/lib/libpic32.a(vector11.o)
                0x9fc01360                __vector_dispatch_11
                0x00000001                ASSERT (((_vector_spacing == 0x0) || (SIZEOF (.vector_11) <= (_vector_spacing << 0x5))), function at exception vector 11 too large)

.vector_12      0x9fc01380        0x8
 *(.vector_12)
 .vector_12     0x9fc01380        0x8 /opt/microchip/xc32/v1.44/bin/bin/../../lib/gcc/pic32mx/4.8.3/../../../../pic32mx/lib/libpic32.a(vector12.o)
                0x9fc01380                __vector_dispatch_12
                0x00000001                ASSERT (((_vector_spacing == 0x0) || (SIZEOF (.vector_12) <= (_vector_spacing << 0x5))), function at exception vector 12 too large)

.vector_13      0x9fc013a0        0x8
 *(.vector_13)
 .vector_13     0x9fc013a0        0x8 /opt/microchip/xc32/v1.44/bin/bin/../../lib/gcc/pic32mx/4.8.3/../../../../pic32mx/lib/libpic32.a(vector13.o)
                0x9fc013a0                __vector_dispatch_13
                0x00000001                ASSERT (((_vector_spacing == 0x0) || (SIZEOF (.vector_13) <= (_vector_spacing << 0x5))), function at exception vector 13 too large)

.vector_14      0x9fc013c0        0x8
 *(.vector_14)
 .vector_14     0x9fc013c0        0x8 /opt/microchip/xc32/v1.44/bin/bin/../../lib/gcc/pic32mx/4.8.3/../../../../pic32mx/lib/libpic32.a(vector14.o)
                0x9fc013c0                __vector_dispatch_14
                0x00000001                ASSERT (((_vector_spacing == 0x0) || (SIZEOF (.vector_14) <= (_vector_spacing << 0x5))), function at exception vector 14 too large)

.vector_15      0x9fc013e0        0x8
 *(.vector_15)
 .vector_15     0x9fc013e0        0x8 /opt/microchip/xc32/v1.44/bin/bin/../../lib/gcc/pic32mx/4.8.3/../../../../pic32mx/lib/libpic32.a(vector15.o)
                0x9fc013e0                __vector_dispatch_15
                0x00000001                ASSERT (((_vector_spacing == 0x0) || (SIZEOF (.vector_15) <= (_vector_spacing << 0x5))), function at exception vector 15 too large)

.vector_16      0x9fc01400        0x8
 *(.vector_16)
 .vector_16     0x9fc01400        0x8 /opt/microchip/xc32/v1.44/bin/bin/../../lib/gcc/pic32mx/4.8.3/../../../../pic32mx/lib/libpic32.a(vector16.o)
                0x9fc01400                __vector_dispatch_16
                0x00000001                ASSERT (((_vector_spacing == 0x0) || (SIZEOF (.vector_16) <= (_vector_spacing << 0x5))), function at exception vector 16 too large)

.vector_17      0x9fc01420        0x8
 *(.vector_17)
 .vector_17     0x9fc01420        0x8 /opt/microchip/xc32/v1.44/bin/bin/../../lib/gcc/pic32mx/4.8.3/../../../../pic32mx/lib/libpic32.a(vector17.o)
                0x9fc01420                __vector_dispatch_17
                0x00000001                ASSERT (((_vector_spacing == 0x0) || (SIZEOF (.vector_17) <= (_vector_spacing << 0x5))), function at exception vector 17 too large)

.vector_18      0x9fc01440        0x8
 *(.vector_18)
 .vector_18     0x9fc01440        0x8 /opt/microchip/xc32/v1.44/bin/bin/../../lib/gcc/pic32mx/4.8.3/../../../../pic32mx/lib/libpic32.a(vector18.o)
                0x9fc01440                __vector_dispatch_18
                0x00000001                ASSERT (((_vector_spacing == 0x0) || (SIZEOF (.vector_18) <= (_vector_spacing << 0x5))), function at exception vector 18 too large)

.vector_19      0x9fc01460        0x8
 *(.vector_19)
 .vector_19     0x9fc01460        0x8 /opt/microchip/xc32/v1.44/bin/bin/../../lib/gcc/pic32mx/4.8.3/../../../../pic32mx/lib/libpic32.a(vector19.o)
                0x9fc01460                __vector_dispatch_19
                0x00000001                ASSERT (((_vector_spacing == 0x0) || (SIZEOF (.vector_19) <= (_vector_spacing << 0x5))), function at exception vector 19 too large)

.vector_20      0x9fc01480        0x8
 *(.vector_20)
 .vector_20     0x9fc01480        0x8 /opt/microchip/xc32/v1.44/bin/bin/../../lib/gcc/pic32mx/4.8.3/../../../../pic32mx/lib/libpic32.a(vector20.o)
                0x9fc01480                __vector_dispatch_20
                0x00000001                ASSERT (((_vector_spacing == 0x0) || (SIZEOF (.vector_20) <= (_vector_spacing << 0x5))), function at exception vector 20 too large)

.vector_21      0x9fc014a0        0x8
 *(.vector_21)
 .vector_21     0x9fc014a0        0x8 /opt/microchip/xc32/v1.44/bin/bin/../../lib/gcc/pic32mx/4.8.3/../../../../pic32mx/lib/libpic32.a(vector21.o)
                0x9fc014a0                __vector_dispatch_21
                0x00000001                ASSERT (((_vector_spacing == 0x0) || (SIZEOF (.vector_21) <= (_vector_spacing << 0x5))), function at exception vector 21 too large)

.vector_22      0x9fc014c0        0x8
 *(.vector_22)
 .vector_22     0x9fc014c0        0x8 /opt/microchip/xc32/v1.44/bin/bin/../../lib/gcc/pic32mx/4.8.3/../../../../pic32mx/lib/libpic32.a(vector22.o)
                0x9fc014c0                __vector_dispatch_22
                0x00000001                ASSERT (((_vector_spacing == 0x0) || (SIZEOF (.vector_22) <= (_vector_spacing << 0x5))), function at exception vector 22 too large)

.vector_23      0x9fc014e0        0x8
 *(.vector_23)
 .vector_23     0x9fc014e0        0x8 /opt/microchip/xc32/v1.44/bin/bin/../../lib/gcc/pic32mx/4.8.3/../../../../pic32mx/lib/libpic32.a(vector23.o)
                0x9fc014e0                __vector_dispatch_23
                0x00000001                ASSERT (((_vector_spacing == 0x0) || (SIZEOF (.vector_23) <= (_vector_spacing << 0x5))), function at exception vector 23 too large)

.vector_24      0x9fc01500        0x8
 *(.vector_24)
 .vector_24     0x9fc01500        0x8 build/default/production/_ext/1688732426/system_interrupt.o
                0x9fc01500                __vector_dispatch_24
                0x00000001                ASSERT (((_vector_spacing == 0x0) || (SIZEOF (.vector_24) <= (_vector_spacing << 0x5))), function at exception vector 24 too large)

.vector_25      0x9fc01520        0x8
 *(.vector_25)
 .vector_25     0x9fc01520        0x8 build/default/production/_ext/1688732426/system_interrupt.o
                0x9fc01520                __vector_dispatch_25
                0x00000001                ASSERT (((_vector_spacing == 0x0) || (SIZEOF (.vector_25) <= (_vector_spacing << 0x5))), function at exception vector 25 too large)

.vector_26      0x9fc01540        0x8
 *(.vector_26)
 .vector_26     0x9fc01540        0x8 /opt/microchip/xc32/v1.44/bin/bin/../../lib/gcc/pic32mx/4.8.3/../../../../pic32mx/lib/libpic32.a(vector26.o)
                0x9fc01540                __vector_dispatch_26
                0x00000001                ASSERT (((_vector_spacing == 0x0) || (SIZEOF (.vector_26) <= (_vector_spacing << 0x5))), function at exception vector 26 too large)

.vector_27      0x9fc01560        0x8
 *(.vector_27)
 .vector_27     0x9fc01560        0x8 /opt/microchip/xc32/v1.44/bin/bin/../../lib/gcc/pic32mx/4.8.3/../../../../pic32mx/lib/libpic32.a(vector27.o)
                0x9fc01560                __vector_dispatch_27
                0x00000001                ASSERT (((_vector_spacing == 0x0) || (SIZEOF (.vector_27) <= (_vector_spacing << 0x5))), function at exception vector 27 too large)

.vector_28      0x9fc01580        0x8
 *(.vector_28)
 .vector_28     0x9fc01580        0x8 /opt/microchip/xc32/v1.44/bin/bin/../../lib/gcc/pic32mx/4.8.3/../../../../pic32mx/lib/libpic32.a(vector28.o)
                0x9fc01580                __vector_dispatch_28
                0x00000001                ASSERT (((_vector_spacing == 0x0) || (SIZEOF (.vector_28) <= (_vector_spacing << 0x5))), function at exception vector 28 too large)

.vector_29      0x9fc015a0        0x8
 *(.vector_29)
 .vector_29     0x9fc015a0        0x8 /opt/microchip/xc32/v1.44/bin/bin/../../lib/gcc/pic32mx/4.8.3/../../../../pic32mx/lib/libpic32.a(vector29.o)
                0x9fc015a0                __vector_dispatch_29
                0x00000001                ASSERT (((_vector_spacing == 0x0) || (SIZEOF (.vector_29) <= (_vector_spacing << 0x5))), function at exception vector 29 too large)

.vector_30      0x9fc015c0        0x8
 *(.vector_30)
 .vector_30     0x9fc015c0        0x8 /opt/microchip/xc32/v1.44/bin/bin/../../lib/gcc/pic32mx/4.8.3/../../../../pic32mx/lib/libpic32.a(vector30.o)
                0x9fc015c0                __vector_dispatch_30
                0x00000001                ASSERT (((_vector_spacing == 0x0) || (SIZEOF (.vector_30) <= (_vector_spacing << 0x5))), function at exception vector 30 too large)

.vector_31      0x9fc015e0        0x8
 *(.vector_31)
 .vector_31     0x9fc015e0        0x8 build/default/production/_ext/1688732426/system_interrupt.o
                0x9fc015e0                __vector_dispatch_31
                0x00000001                ASSERT (((_vector_spacing == 0x0) || (SIZEOF (.vector_31) <= (_vector_spacing << 0x5))), function at exception vector 31 too large)

.vector_32      0x9fc01600        0x8
 *(.vector_32)
 .vector_32     0x9fc01600        0x8 /opt/microchip/xc32/v1.44/bin/bin/../../lib/gcc/pic32mx/4.8.3/../../../../pic32mx/lib/libpic32.a(vector32.o)
                0x9fc01600                __vector_dispatch_32
                0x00000001                ASSERT (((_vector_spacing == 0x0) || (SIZEOF (.vector_32) <= (_vector_spacing << 0x5))), function at exception vector 32 too large)

.vector_33      0x9fc01620        0x8
 *(.vector_33)
 .vector_33     0x9fc01620        0x8 /opt/microchip/xc32/v1.44/bin/bin/../../lib/gcc/pic32mx/4.8.3/../../../../pic32mx/lib/libpic32.a(vector33.o)
                0x9fc01620                __vector_dispatch_33
                0x00000001                ASSERT (((_vector_spacing == 0x0) || (SIZEOF (.vector_33) <= (_vector_spacing << 0x5))), function at exception vector 33 too large)

.vector_34      0x9fc01640        0x8
 *(.vector_34)
 .vector_34     0x9fc01640        0x8 /opt/microchip/xc32/v1.44/bin/bin/../../lib/gcc/pic32mx/4.8.3/../../../../pic32mx/lib/libpic32.a(vector34.o)
                0x9fc01640                __vector_dispatch_34
                0x00000001                ASSERT (((_vector_spacing == 0x0) || (SIZEOF (.vector_34) <= (_vector_spacing << 0x5))), function at exception vector 34 too large)

.vector_35      0x9fc01660        0x8
 *(.vector_35)
 .vector_35     0x9fc01660        0x8 /opt/microchip/xc32/v1.44/bin/bin/../../lib/gcc/pic32mx/4.8.3/../../../../pic32mx/lib/libpic32.a(vector35.o)
                0x9fc01660                __vector_dispatch_35
                0x00000001                ASSERT (((_vector_spacing == 0x0) || (SIZEOF (.vector_35) <= (_vector_spacing << 0x5))), function at exception vector 35 too large)

.vector_36      0x9fc01680        0x8
 *(.vector_36)
 .vector_36     0x9fc01680        0x8 /opt/microchip/xc32/v1.44/bin/bin/../../lib/gcc/pic32mx/4.8.3/../../../../pic32mx/lib/libpic32.a(vector36.o)
                0x9fc01680                __vector_dispatch_36
                0x00000001                ASSERT (((_vector_spacing == 0x0) || (SIZEOF (.vector_36) <= (_vector_spacing << 0x5))), function at exception vector 36 too large)

.vector_37      0x9fc016a0        0x8
 *(.vector_37)
 .vector_37     0x9fc016a0        0x8 /opt/microchip/xc32/v1.44/bin/bin/../../lib/gcc/pic32mx/4.8.3/../../../../pic32mx/lib/libpic32.a(vector37.o)
                0x9fc016a0                __vector_dispatch_37
                0x00000001                ASSERT (((_vector_spacing == 0x0) || (SIZEOF (.vector_37) <= (_vector_spacing << 0x5))), function at exception vector 37 too large)

.vector_38      0x9fc016c0        0x8
 *(.vector_38)
 .vector_38     0x9fc016c0        0x8 /opt/microchip/xc32/v1.44/bin/bin/../../lib/gcc/pic32mx/4.8.3/../../../../pic32mx/lib/libpic32.a(vector38.o)
                0x9fc016c0                __vector_dispatch_38
                0x00000001                ASSERT (((_vector_spacing == 0x0) || (SIZEOF (.vector_38) <= (_vector_spacing << 0x5))), function at exception vector 38 too large)

.vector_39      0x9fc016e0        0x8
 *(.vector_39)
 .vector_39     0x9fc016e0        0x8 /opt/microchip/xc32/v1.44/bin/bin/../../lib/gcc/pic32mx/4.8.3/../../../../pic32mx/lib/libpic32.a(vector39.o)
                0x9fc016e0                __vector_dispatch_39
                0x00000001                ASSERT (((_vector_spacing == 0x0) || (SIZEOF (.vector_39) <= (_vector_spacing << 0x5))), function at exception vector 39 too large)

.vector_40      0x9fc01700        0x8
 *(.vector_40)
 .vector_40     0x9fc01700        0x8 /opt/microchip/xc32/v1.44/bin/bin/../../lib/gcc/pic32mx/4.8.3/../../../../pic32mx/lib/libpic32.a(vector40.o)
                0x9fc01700                __vector_dispatch_40
                0x00000001                ASSERT (((_vector_spacing == 0x0) || (SIZEOF (.vector_40) <= (_vector_spacing << 0x5))), function at exception vector 40 too large)

.vector_41      0x9fc01720        0x8
 *(.vector_41)
 .vector_41     0x9fc01720        0x8 /opt/microchip/xc32/v1.44/bin/bin/../../lib/gcc/pic32mx/4.8.3/../../../../pic32mx/lib/libpic32.a(vector41.o)
                0x9fc01720                __vector_dispatch_41
                0x00000001                ASSERT (((_vector_spacing == 0x0) || (SIZEOF (.vector_41) <= (_vector_spacing << 0x5))), function at exception vector 41 too large)

.vector_42      0x9fc01740        0x8
 *(.vector_42)
 .vector_42     0x9fc01740        0x8 /opt/microchip/xc32/v1.44/bin/bin/../../lib/gcc/pic32mx/4.8.3/../../../../pic32mx/lib/libpic32.a(vector42.o)
                0x9fc01740                __vector_dispatch_42
                0x00000001                ASSERT (((_vector_spacing == 0x0) || (SIZEOF (.vector_42) <= (_vector_spacing << 0x5))), function at exception vector 42 too large)

.vector_43      0x9fc01760        0x8
 *(.vector_43)
 .vector_43     0x9fc01760        0x8 /opt/microchip/xc32/v1.44/bin/bin/../../lib/gcc/pic32mx/4.8.3/../../../../pic32mx/lib/libpic32.a(vector43.o)
                0x9fc01760                __vector_dispatch_43
                0x00000001                ASSERT (((_vector_spacing == 0x0) || (SIZEOF (.vector_43) <= (_vector_spacing << 0x5))), function at exception vector 43 too large)

.vector_44      0x9fc01780        0x8
 *(.vector_44)
 .vector_44     0x9fc01780        0x8 /opt/microchip/xc32/v1.44/bin/bin/../../lib/gcc/pic32mx/4.8.3/../../../../pic32mx/lib/libpic32.a(vector44.o)
                0x9fc01780                __vector_dispatch_44
                0x00000001                ASSERT (((_vector_spacing == 0x0) || (SIZEOF (.vector_44) <= (_vector_spacing << 0x5))), function at exception vector 44 too large)

.vector_45      0x9fc017a0        0x0
 *(.vector_45)
                0x00000001                ASSERT (((_vector_spacing == 0x0) || (SIZEOF (.vector_45) <= (_vector_spacing << 0x5))), function at exception vector 45 too large)

.vector_46      0x9fc017c0        0x0
 *(.vector_46)
                0x00000001                ASSERT (((_vector_spacing == 0x0) || (SIZEOF (.vector_46) <= (_vector_spacing << 0x5))), function at exception vector 46 too large)

.vector_47      0x9fc017e0        0x0
 *(.vector_47)
                0x00000001                ASSERT (((_vector_spacing == 0x0) || (SIZEOF (.vector_47) <= (_vector_spacing << 0x5))), function at exception vector 47 too large)

.vector_48      0x9fc01800        0x0
 *(.vector_48)
                0x00000001                ASSERT (((_vector_spacing == 0x0) || (SIZEOF (.vector_48) <= (_vector_spacing << 0x5))), function at exception vector 48 too large)

.vector_49      0x9fc01820        0x0
 *(.vector_49)
                0x00000001                ASSERT (((_vector_spacing == 0x0) || (SIZEOF (.vector_49) <= (_vector_spacing << 0x5))), function at exception vector 49 too large)

.vector_50      0x9fc01840        0x0
 *(.vector_50)
                0x00000001                ASSERT (((_vector_spacing == 0x0) || (SIZEOF (.vector_50) <= (_vector_spacing << 0x5))), function at exception vector 50 too large)

.vector_51      0x9fc01860        0x0
 *(.vector_51)
                0x00000001                ASSERT (((_vector_spacing == 0x0) || (SIZEOF (.vector_51) <= (_vector_spacing << 0x5))), function at exception vector 51 too large)

.vector_52      0x9fc01880        0x0
 *(.vector_52)
                0x00000001                ASSERT (((_vector_spacing == 0x0) || (SIZEOF (.vector_52) <= (_vector_spacing << 0x5))), function at exception vector 52 too large)

.vector_53      0x9fc018a0        0x0
 *(.vector_53)
                0x00000001                ASSERT (((_vector_spacing == 0x0) || (SIZEOF (.vector_53) <= (_vector_spacing << 0x5))), function at exception vector 53 too large)

.vector_54      0x9fc018c0        0x0
 *(.vector_54)
                0x00000001                ASSERT (((_vector_spacing == 0x0) || (SIZEOF (.vector_54) <= (_vector_spacing << 0x5))), function at exception vector 54 too large)

.vector_55      0x9fc018e0        0x0
 *(.vector_55)
                0x00000001                ASSERT (((_vector_spacing == 0x0) || (SIZEOF (.vector_55) <= (_vector_spacing << 0x5))), function at exception vector 55 too large)

.vector_56      0x9fc01900        0x0
 *(.vector_56)
                0x00000001                ASSERT (((_vector_spacing == 0x0) || (SIZEOF (.vector_56) <= (_vector_spacing << 0x5))), function at exception vector 56 too large)

.vector_57      0x9fc01920        0x0
 *(.vector_57)
                0x00000001                ASSERT (((_vector_spacing == 0x0) || (SIZEOF (.vector_57) <= (_vector_spacing << 0x5))), function at exception vector 57 too large)

.vector_58      0x9fc01940        0x0
 *(.vector_58)
                0x00000001                ASSERT (((_vector_spacing == 0x0) || (SIZEOF (.vector_58) <= (_vector_spacing << 0x5))), function at exception vector 58 too large)

.vector_59      0x9fc01960        0x0
 *(.vector_59)
                0x00000001                ASSERT (((_vector_spacing == 0x0) || (SIZEOF (.vector_59) <= (_vector_spacing << 0x5))), function at exception vector 59 too large)

.vector_60      0x9fc01980        0x0
 *(.vector_60)
                0x00000001                ASSERT (((_vector_spacing == 0x0) || (SIZEOF (.vector_60) <= (_vector_spacing << 0x5))), function at exception vector 60 too large)

.vector_61      0x9fc019a0        0x0
 *(.vector_61)
                0x00000001                ASSERT (((_vector_spacing == 0x0) || (SIZEOF (.vector_61) <= (_vector_spacing << 0x5))), function at exception vector 61 too large)

.vector_62      0x9fc019c0        0x0
 *(.vector_62)
                0x00000001                ASSERT (((_vector_spacing == 0x0) || (SIZEOF (.vector_62) <= (_vector_spacing << 0x5))), function at exception vector 62 too large)

.vector_63      0x9fc019e0        0x0
 *(.vector_63)
                0x00000001                ASSERT (((_vector_spacing == 0x0) || (SIZEOF (.vector_63) <= (_vector_spacing << 0x5))), function at exception vector 63 too large)

.startup
 *(.startup)

.text           0x9d000000        0x0
 *(.stub .gnu.linkonce.t.*)
 *(.text.*personality*)
 *(.mips16.fn.*)
 *(.mips16.call.*)
 *(.gnu.warning)
                0x9d000000                . = ALIGN (0x4)

.init           0x9d000000        0x0
 *crti.o(.init)
 *crtbegin.o(.init)
 *(EXCLUDE_FILE(*crtn.o *crtend?.o *crtend.o) .init)
 *crtend.o(.init)
 *crtn.o(.init)
                0x9d000000                . = ALIGN (0x4)

.fini           0x9d000000        0x0
 *(.fini)
                0x9d000000                . = ALIGN (0x4)

.preinit_array  0x9d000000        0x0
                0x9d000000                PROVIDE (__preinit_array_start, .)
 *(.preinit_array)
                0x9d000000                PROVIDE (__preinit_array_end, .)
                0x9d000000                . = ALIGN (0x4)

.init_array     0x9d000000        0x0
                0x9d000000                PROVIDE (__init_array_start, .)
 *(SORT(.init_array.*))
 *(.init_array)
                0x9d000000                PROVIDE (__init_array_end, .)
                0x9d000000                . = ALIGN (0x4)

.fini_array     0x9d000000        0x0
                0x9d000000                PROVIDE (__fini_array_start, .)
 *(SORT(.fini_array.*))
 *(.fini_array)
                0x9d000000                PROVIDE (__fini_array_end, .)
                0x9d000000                . = ALIGN (0x4)

.ctors          0x9d000000        0x0
 *crtbegin.o(.ctors)
 *crtbegin?.o(.ctors)
 *(EXCLUDE_FILE(*crtend?.o *crtend.o) .ctors)
 *(SORT(.ctors.*))
 *(.ctors)
                0x9d000000                . = ALIGN (0x4)

.dtors          0x9d000000        0x0
 *crtbegin.o(.dtors)
 *crtbegin?.o(.dtors)
 *(EXCLUDE_FILE(*crtend?.o *crtend.o) .dtors)
 *(SORT(.dtors.*))
 *(.dtors)
                0x9d000000                . = ALIGN (0x4)

.rodata         0x9d000000        0x0
 *(.gnu.linkonce.r.*)
 *(.rodata1)
                0x9d000000                . = ALIGN (0x4)

.sdata2         0x9fc00490        0x0
 *(.sdata2 .sdata2.* .gnu.linkonce.s2.*)
                0x9fc00490                . = ALIGN (0x4)

.sbss2          0x9fc00490        0x0
 *(.sbss2 .sbss2.* .gnu.linkonce.sb2.*)
                0x9fc00490                . = ALIGN (0x4)

.eh_frame_hdr
 *(.eh_frame_hdr)
                0x9fc00490                . = ALIGN (0x4)

.eh_frame
 *(.eh_frame)
                0x9fc00490                . = ALIGN (0x4)

.gcc_except_table
 *(.gcc_except_table .gcc_except_table.*)
                0x9fc00490                . = ALIGN (0x4)

.dbg_data       0xa0000000        0x0
                0xa0000000                . = (. + DEFINED (_DEBUGGER)?0x200:0x0)

.jcr            0xa0000000        0x0
 *(.jcr)
                0xa0000000                . = ALIGN (0x4)

.eh_frame
 *(.eh_frame)
                0xa0000000                . = ALIGN (0x4)

.gcc_except_table
 *(.gcc_except_table .gcc_except_table.*)
                0xa0000000                . = ALIGN (0x4)

.persist        0xa0000000        0x0
                0xa0000000                _persist_begin = .
 *(.persist .persist.*)
 *(.pbss .pbss.*)
                0xa0000000                . = ALIGN (0x4)
                0xa0000000                _persist_end = .

.data           0xa0000000        0x0
 *(.gnu.linkonce.d.*)
 *(.data1)
                0xa0000000                . = ALIGN (0x4)
                0xa0000000                . = .
                0xa0007ff0                _gp = (ALIGN (0x10) + 0x7ff0)

.got            0xa0000000        0x0
 *(.got.plt)
 *(.got)
                0xa0000000                . = ALIGN (0x4)

.sdata          0xa0000000       0x14
                0xa0000000                _sdata_begin = .
 *(.sdata .sdata.* .gnu.linkonce.s.*)
 .sdata         0xa0000000        0x4 build/default/production/OledDriver.o
                0xa0000000                oled_ptr
 .sdata         0xa0000004        0x2 build/default/production/_ext/1360937237/bioshield.o
 *fill*         0xa0000006        0x2 
 .sdata         0xa0000008        0x8 build/default/production/_ext/1360937237/orient.o
                0xa0000008                old_orienter_bits
                0xa000000c                orienter_bits
 .sdata         0xa0000010        0x4 /opt/microchip/xc32/v1.44/bin/bin/../../lib/gcc/pic32mx/4.8.3/../../../../pic32mx/lib/libpic32.a(xc32_uart.o)
                0xa0000010                __XC_UART
                0xa0000014                . = ALIGN (0x4)
                0xa0000014                _sdata_end = .

.lit8
 *(.lit8)

.lit4
 *(.lit4)
                0xa0000014                . = ALIGN (0x4)
                0xa0000014                _data_end = .
                0xa0000014                _bss_begin = .

.sbss           0xa0000014       0x8c
                0xa0000014                _sbss_begin = .
 *(.dynsbss)
 *(.sbss .sbss.* .gnu.linkonce.sb.*)
 .sbss          0xa0000014        0x4 build/default/production/OledDriver.o
 .sbss          0xa0000018        0x1 build/default/production/_ext/1407244131/drv_tmr_static.o
 *fill*         0xa0000019        0x3 
 .sbss          0xa000001c        0xc build/default/production/_ext/1688732426/system_exceptions.o
 .sbss          0xa0000028       0x10 build/default/production/_ext/1360937237/bioshield.o
 .sbss          0xa0000038        0x4 build/default/production/_ext/1360937237/orient.o
 .sbss          0xa000003c        0x4 build/default/production/_ext/1022305019/drv_i2c.o
 .sbss          0xa0000040        0x1 build/default/production/_ext/1871970537/drv_spi.o
 *(.scommon)
 *fill*         0xa0000041        0x3 
 .scommon       0xa0000044       0x14 build/default/production/OledChar.o
                0xa0000044                xchOledMax
                0xa0000048                xchOledCur
                0xa000004c                ychOledCur
                0xa0000050                pbOledFontExt
                0xa0000054                ychOledMax
 .scommon       0xa0000058       0x2c build/default/production/OledDriver.o
                0xa0000058                ycoOledCur
                0xa000005c                xcoOledCur
                0xa0000060                pbOledCur
                0xa0000064                pbOledPatCur
                0xa0000068                pbOledFontCur
                0xa000006c                dycoOledFontCur
                0xa0000070                dxcoOledFontCur
                0xa0000074                fOledCharUpdate
                0xa0000078                clrOledCur
                0xa000007c                pbOledFontUser
                0xa0000080                bnOledCur
 .scommon       0xa0000084        0x8 build/default/production/OledGrph.o
                0xa0000084                modOledCur
                0xa0000088                pfnDoRop
 .scommon       0xa000008c        0x8 build/default/production/_ext/340578644/sys_devcon.o
                0xa000008c                sysDevconObj
 .scommon       0xa0000094        0x4 build/default/production/_ext/1360937237/app.o
                0xa0000094                appData
 .scommon       0xa0000098        0x3 build/default/production/_ext/1022305019/drv_i2c.o
                0xa0000098                gDrvI2CCommonDataObj
 *fill*         0xa000009b        0x1 
 .scommon       0xa000009c        0x3 build/default/production/_ext/1590698352/drv_usart.o
                0xa000009c                gDrvUSARTCommonDataObj
                0xa000009f                _sbss_end = .
                0xa00000a0                . = ALIGN (0x4)
 *fill*         0xa000009f        0x1 

.bss            0xa00000a0      0x3f4
 *(.dynbss)
 *(COMMON)
 COMMON         0xa00000a0      0x100 build/default/production/OledChar.o
                0xa00000a0                rgbOledFontUser
 COMMON         0xa00001a0      0x200 build/default/production/OledDriver.o
                0xa00001a0                rgbOledBmp
 COMMON         0xa00003a0       0x38 build/default/production/_ext/639803181/sys_clk.o
                0xa00003a0                clkObject
 COMMON         0xa00003d8       0x10 build/default/production/_ext/1688732426/system_init.o
                0xa00003d8                sysObj
 COMMON         0xa00003e8       0xac build/default/production/_ext/1590698352/drv_usart.o
                0xa00003e8                gDrvUSARTClientObj
                0xa0000434                gDrvUSARTObj
                0xa0000494                . = ALIGN ((. != 0x0)?0x4:0x1)
                0xa0000494                . = ALIGN (0x4)
                0xa0000494                _end = .
                0xa0000494                _bss_end = .
                0x00004000                _bmxdudba_address = 0x4000
                0x00004000                _bmxdupba_address = 0x4000

/DISCARD/
 *(.pdr)
 *(.rel.dyn)
 *(.note.GNU-stack)
 *(.note.GNU-stack)
 *(.gnu_debuglink)
 *(.gnu.lto_*)
 *(.discard)

.gptab.sdata
 *(.gptab.data)
 *(.gptab.sdata)

.gptab.sbss
 *(.gptab.bss)
 *(.gptab.sbss)

.mdebug.abi32   0xa0000494        0x0
 *(.mdebug.abi32)
 .mdebug.abi32  0xa0000494        0x0 build/default/production/ChrFont0.o
 .mdebug.abi32  0xa0000494        0x0 build/default/production/FillPat.o
 .mdebug.abi32  0xa0000494        0x0 build/default/production/OledChar.o
 .mdebug.abi32  0xa0000494        0x0 build/default/production/OledDriver.o
 .mdebug.abi32  0xa0000494        0x0 build/default/production/OledGrph.o
 .mdebug.abi32  0xa0000494        0x0 build/default/production/_ext/1047219354/drv_oc_mapping.o
 .mdebug.abi32  0xa0000494        0x0 build/default/production/_ext/1047219354/drv_oc_static.o
 .mdebug.abi32  0xa0000494        0x0 build/default/production/_ext/977502197/drv_spi_tasks.o
 .mdebug.abi32  0xa0000494        0x0 build/default/production/_ext/977502197/drv_spi_api.o
 .mdebug.abi32  0xa0000494        0x0 build/default/production/_ext/977502197/drv_spi_master_rm_tasks.o
 .mdebug.abi32  0xa0000494        0x0 build/default/production/_ext/1407244131/drv_tmr_static.o
 .mdebug.abi32  0xa0000494        0x0 build/default/production/_ext/1407244131/drv_tmr_mapping.o
 .mdebug.abi32  0xa0000494        0x0 build/default/production/_ext/639803181/sys_clk.o
 .mdebug.abi32  0xa0000494        0x0 build/default/production/_ext/639803181/sys_clk_pic32mx.o
 .mdebug.abi32  0xa0000494        0x0 build/default/production/_ext/340578644/sys_devcon.o
 .mdebug.abi32  0xa0000494        0x0 build/default/production/_ext/340578644/sys_devcon_pic32mx.o
 .mdebug.abi32  0xa0000494        0x0 build/default/production/_ext/822048611/sys_ports_static.o
 .mdebug.abi32  0xa0000494        0x0 build/default/production/_ext/1688732426/system_init.o
 .mdebug.abi32  0xa0000494        0x0 build/default/production/_ext/1688732426/system_interrupt.o
 .mdebug.abi32  0xa0000494        0x0 build/default/production/_ext/1688732426/system_exceptions.o
 .mdebug.abi32  0xa0000494        0x0 build/default/production/_ext/1688732426/system_tasks.o
 .mdebug.abi32  0xa0000494        0x0 build/default/production/_ext/1360937237/app.o
 .mdebug.abi32  0xa0000494        0x0 build/default/production/_ext/1360937237/main.o
 .mdebug.abi32  0xa0000494        0x0 build/default/production/_ext/1360937237/bioshield.o
 .mdebug.abi32  0xa0000494        0x0 build/default/production/_ext/1360937237/orient.o
 .mdebug.abi32  0xa0000494        0x0 build/default/production/_ext/1022305019/drv_i2c.o
 .mdebug.abi32  0xa0000494        0x0 build/default/production/_ext/1871970537/drv_spi.o
 .mdebug.abi32  0xa0000494        0x0 build/default/production/_ext/1805174553/drv_spi_sys_queue_fifo.o
 .mdebug.abi32  0xa0000494        0x0 build/default/production/_ext/1590698352/drv_usart.o
 .mdebug.abi32  0xa0000494        0x0 build/default/production/_ext/1590698352/drv_usart_byte_model.o
 .mdebug.abi32  0xa0000494        0x0 build/default/production/_ext/2147425457/sys_int_pic32.o
 .mdebug.abi32  0xa0000494        0x0 /opt/microchip/xc32/v1.44/bin/bin/../../lib/gcc/pic32mx/4.8.3/libgcc.a(floatunsisf.o)
 .mdebug.abi32  0xa0000494        0x0 /opt/microchip/xc32/v1.44/bin/bin/../../lib/gcc/pic32mx/4.8.3/../../../../pic32mx/lib/libpic32.a(default-bootstrap-exception-handler.o)
 .mdebug.abi32  0xa0000494        0x0 /opt/microchip/xc32/v1.44/bin/bin/../../lib/gcc/pic32mx/4.8.3/../../../../pic32mx/lib/libpic32.a(default-on-reset.o)
 .mdebug.abi32  0xa0000494        0x0 /opt/microchip/xc32/v1.44/bin/bin/../../lib/gcc/pic32mx/4.8.3/../../../../pic32mx/lib/libpic32.a(default-on-bootstrap.o)
 .mdebug.abi32  0xa0000494        0x0 /opt/microchip/xc32/v1.44/bin/bin/../../lib/gcc/pic32mx/4.8.3/../../../../pic32mx/lib/libpic32.a(defaultinterrupt.o)
 .mdebug.abi32  0xa0000494        0x0 /opt/microchip/xc32/v1.44/bin/bin/../../lib/gcc/pic32mx/4.8.3/../../../../pic32mx/lib/libc.a(sprintf_cdnopsuxX.eo)
 .mdebug.abi32  0xa0000494        0x0 /opt/microchip/xc32/v1.44/bin/bin/../../lib/gcc/pic32mx/4.8.3/../../../../pic32mx/lib/libc.a(doprnt_cdnopsuxX.eo)
 .mdebug.abi32  0xa0000494        0x0 /opt/microchip/xc32/v1.44/bin/bin/../../lib/gcc/pic32mx/4.8.3/../../../../pic32mx/lib/libc.a(_fputc_simple.o)
 .mdebug.abi32  0xa0000494        0x0 /opt/microchip/xc32/v1.44/bin/bin/../../lib/gcc/pic32mx/4.8.3/../../../../pic32mx/lib/libc.a(ctype.o)
 .mdebug.abi32  0xa0000494        0x0 /opt/microchip/xc32/v1.44/bin/bin/../../lib/gcc/pic32mx/4.8.3/../../../../pic32mx/lib/libc.a(_iob.o)
 .mdebug.abi32  0xa0000494        0x0 /opt/microchip/xc32/v1.44/bin/bin/../../lib/gcc/pic32mx/4.8.3/../../../../pic32mx/lib/libc.a(_flsbuf_simple.o)
 .mdebug.abi32  0xa0000494        0x0 /opt/microchip/xc32/v1.44/bin/bin/../../lib/gcc/pic32mx/4.8.3/libgcc.a(_udivdi3.o)
 .mdebug.abi32  0xa0000494        0x0 /opt/microchip/xc32/v1.44/bin/bin/../../lib/gcc/pic32mx/4.8.3/libgcc.a(_umoddi3.o)
 .mdebug.abi32  0xa0000494        0x0 /opt/microchip/xc32/v1.44/bin/bin/../../lib/gcc/pic32mx/4.8.3/../../../../pic32mx/lib/libpic32.a(write.o)
 .mdebug.abi32  0xa0000494        0x0 /opt/microchip/xc32/v1.44/bin/bin/../../lib/gcc/pic32mx/4.8.3/../../../../pic32mx/lib/libpic32.a(_mon_putc.o)
 .mdebug.abi32  0xa0000494        0x0 /opt/microchip/xc32/v1.44/bin/bin/../../lib/gcc/pic32mx/4.8.3/../../../../pic32mx/lib/libpic32.a(xc32_uart.o)

.mdebug.abiN32
 *(.mdebug.abiN32)

.mdebug.abi64
 *(.mdebug.abi64)

.mdebug.abiO64
 *(.mdebug.abiO64)

.mdebug.eabi32
 *(.mdebug.eabi32)

.mdebug.eabi64
 *(.mdebug.eabi64)

.gcc_compiled_long32
 *(.gcc_compiled_long32)

.gcc_compiled_long64
 *(.gcc_compiled_long64)

.stab
 *(.stab)

.stabstr
 *(.stabstr)

.stab.excl
 *(.stab.excl)

.stab.exclstr
 *(.stab.exclstr)

.stab.index
 *(.stab.index)

.stab.indexstr
 *(.stab.indexstr)

.comment        0x00000000       0xa2
 *(.comment)
 .comment       0x00000000       0x3c build/default/production/ChrFont0.o
                                 0x3d (size before relaxing)
 .comment       0x00000000       0x3d build/default/production/FillPat.o
 .comment       0x00000000       0x3d build/default/production/OledChar.o
 .comment       0x00000000       0x3d build/default/production/OledDriver.o
 .comment       0x00000000       0x3d build/default/production/OledGrph.o
 .comment       0x00000000       0x3d build/default/production/_ext/1047219354/drv_oc_mapping.o
 .comment       0x00000000       0x3d build/default/production/_ext/1047219354/drv_oc_static.o
 .comment       0x00000000       0x3d build/default/production/_ext/977502197/drv_spi_tasks.o
 .comment       0x00000000       0x3d build/default/production/_ext/977502197/drv_spi_api.o
 .comment       0x00000000       0x3d build/default/production/_ext/977502197/drv_spi_master_rm_tasks.o
 .comment       0x00000000       0x3d build/default/production/_ext/1407244131/drv_tmr_static.o
 .comment       0x00000000       0x3d build/default/production/_ext/1407244131/drv_tmr_mapping.o
 .comment       0x00000000       0x3d build/default/production/_ext/639803181/sys_clk.o
 .comment       0x00000000       0x3d build/default/production/_ext/639803181/sys_clk_pic32mx.o
 .comment       0x00000000       0x3d build/default/production/_ext/340578644/sys_devcon.o
 .comment       0x00000000       0x3d build/default/production/_ext/340578644/sys_devcon_pic32mx.o
 .comment       0x00000000       0x3d build/default/production/_ext/822048611/sys_ports_static.o
 .comment       0x00000000       0x3d build/default/production/_ext/1688732426/system_init.o
 .comment       0x00000000       0x3d build/default/production/_ext/1688732426/system_interrupt.o
 .comment       0x00000000       0x3d build/default/production/_ext/1688732426/system_exceptions.o
 .comment       0x00000000       0x3d build/default/production/_ext/1688732426/system_tasks.o
 .comment       0x00000000       0x3d build/default/production/_ext/1360937237/app.o
 .comment       0x00000000       0x3d build/default/production/_ext/1360937237/main.o
 .comment       0x00000000       0x3d build/default/production/_ext/1360937237/bioshield.o
 .comment       0x00000000       0x3d build/default/production/_ext/1360937237/orient.o
 .comment       0x00000000       0x3d build/default/production/_ext/1022305019/drv_i2c.o
 .comment       0x00000000       0x3d build/default/production/_ext/1871970537/drv_spi.o
 .comment       0x00000000       0x3d build/default/production/_ext/1805174553/drv_spi_sys_queue_fifo.o
 .comment       0x00000000       0x3d build/default/production/_ext/1590698352/drv_usart.o
 .comment       0x00000000       0x3d build/default/production/_ext/1590698352/drv_usart_byte_model.o
 .comment       0x00000000       0x3d build/default/production/_ext/2147425457/sys_int_pic32.o
 .comment       0x00000000       0x3d /opt/microchip/xc32/v1.44/bin/bin/../../lib/gcc/pic32mx/4.8.3/libgcc.a(floatunsisf.o)
 .comment       0x0000003c       0x18 /opt/microchip/xc32/v1.44/bin/bin/../../lib/gcc/pic32mx/4.8.3/../../../../pic32mx/lib/libpic32.a(memset.o)
                                 0x19 (size before relaxing)
 .comment       0x00000000       0x3d /opt/microchip/xc32/v1.44/bin/bin/../../lib/gcc/pic32mx/4.8.3/../../../../pic32mx/lib/libpic32.a(default-bootstrap-exception-handler.o)
 .comment       0x00000000       0x3d /opt/microchip/xc32/v1.44/bin/bin/../../lib/gcc/pic32mx/4.8.3/../../../../pic32mx/lib/libpic32.a(default-on-reset.o)
 .comment       0x00000000       0x3d /opt/microchip/xc32/v1.44/bin/bin/../../lib/gcc/pic32mx/4.8.3/../../../../pic32mx/lib/libpic32.a(default-on-bootstrap.o)
 .comment       0x00000000       0x3d /opt/microchip/xc32/v1.44/bin/bin/../../lib/gcc/pic32mx/4.8.3/../../../../pic32mx/lib/libpic32.a(defaultinterrupt.o)
 .comment       0x00000000       0x3d /opt/microchip/xc32/v1.44/bin/bin/../../lib/gcc/pic32mx/4.8.3/../../../../pic32mx/lib/libc.a(sprintf_cdnopsuxX.eo)
 .comment       0x00000000       0x3d /opt/microchip/xc32/v1.44/bin/bin/../../lib/gcc/pic32mx/4.8.3/../../../../pic32mx/lib/libc.a(doprnt_cdnopsuxX.eo)
 .comment       0x00000000       0x3d /opt/microchip/xc32/v1.44/bin/bin/../../lib/gcc/pic32mx/4.8.3/../../../../pic32mx/lib/libc.a(_fputc_simple.o)
 .comment       0x00000054       0x4e /opt/microchip/xc32/v1.44/bin/bin/../../lib/gcc/pic32mx/4.8.3/../../../../pic32mx/lib/libc.a(ctype.o)
                                 0x8b (size before relaxing)
 .comment       0x00000000       0x3d /opt/microchip/xc32/v1.44/bin/bin/../../lib/gcc/pic32mx/4.8.3/../../../../pic32mx/lib/libc.a(_iob.o)
 .comment       0x00000000       0x3d /opt/microchip/xc32/v1.44/bin/bin/../../lib/gcc/pic32mx/4.8.3/../../../../pic32mx/lib/libc.a(_flsbuf_simple.o)
 .comment       0x00000000       0x3d /opt/microchip/xc32/v1.44/bin/bin/../../lib/gcc/pic32mx/4.8.3/libgcc.a(_udivdi3.o)
 .comment       0x00000000       0x3d /opt/microchip/xc32/v1.44/bin/bin/../../lib/gcc/pic32mx/4.8.3/libgcc.a(_umoddi3.o)
 .comment       0x00000000       0x3d /opt/microchip/xc32/v1.44/bin/bin/../../lib/gcc/pic32mx/4.8.3/../../../../pic32mx/lib/libpic32.a(write.o)
 .comment       0x00000000       0x3d /opt/microchip/xc32/v1.44/bin/bin/../../lib/gcc/pic32mx/4.8.3/../../../../pic32mx/lib/libpic32.a(_mon_putc.o)
 .comment       0x00000000       0x3d /opt/microchip/xc32/v1.44/bin/bin/../../lib/gcc/pic32mx/4.8.3/../../../../pic32mx/lib/libpic32.a(xc32_uart.o)

.debug
 *(.debug)

.line
 *(.line)

.debug_srcinfo
 *(.debug_srcinfo)

.debug_sfnames
 *(.debug_sfnames)

.debug_aranges  0x00000000      0xe30
 *(.debug_aranges)
 .debug_aranges
                0x00000000       0x18 build/default/production/ChrFont0.o
 .debug_aranges
                0x00000018       0x18 build/default/production/FillPat.o
 .debug_aranges
                0x00000030       0x60 build/default/production/OledChar.o
 .debug_aranges
                0x00000090       0x90 build/default/production/OledDriver.o
 .debug_aranges
                0x00000120       0xe8 build/default/production/OledGrph.o
 .debug_aranges
                0x00000208       0x50 build/default/production/_ext/1047219354/drv_oc_mapping.o
 .debug_aranges
                0x00000258       0x88 build/default/production/_ext/1047219354/drv_oc_static.o
 .debug_aranges
                0x000002e0       0x20 build/default/production/_ext/977502197/drv_spi_tasks.o
 .debug_aranges
                0x00000300       0x28 build/default/production/_ext/977502197/drv_spi_api.o
 .debug_aranges
                0x00000328       0x28 build/default/production/_ext/977502197/drv_spi_master_rm_tasks.o
 .debug_aranges
                0x00000350       0x88 build/default/production/_ext/1407244131/drv_tmr_static.o
 .debug_aranges
                0x000003d8       0xe8 build/default/production/_ext/1407244131/drv_tmr_mapping.o
 .debug_aranges
                0x000004c0       0x88 build/default/production/_ext/639803181/sys_clk.o
 .debug_aranges
                0x00000548       0x80 build/default/production/_ext/639803181/sys_clk_pic32mx.o
 .debug_aranges
                0x000005c8       0x78 build/default/production/_ext/340578644/sys_devcon.o
 .debug_aranges
                0x00000640       0x20 build/default/production/_ext/340578644/sys_devcon_pic32mx.o
 .debug_aranges
                0x00000660      0x108 build/default/production/_ext/822048611/sys_ports_static.o
 .debug_aranges
                0x00000768       0x20 build/default/production/_ext/1688732426/system_init.o
 .debug_aranges
                0x00000788       0x48 build/default/production/_ext/1688732426/system_interrupt.o
 .debug_aranges
                0x000007d0       0x20 build/default/production/_ext/1688732426/system_exceptions.o
 .debug_aranges
                0x000007f0       0x20 build/default/production/_ext/1688732426/system_tasks.o
 .debug_aranges
                0x00000810       0x28 build/default/production/_ext/1360937237/app.o
 .debug_aranges
                0x00000838       0x20 build/default/production/_ext/1360937237/main.o
 .debug_aranges
                0x00000858       0x28 build/default/production/_ext/1360937237/bioshield.o
 .debug_aranges
                0x00000880       0x28 build/default/production/_ext/1360937237/orient.o
 .debug_aranges
                0x000008a8      0x100 build/default/production/_ext/1022305019/drv_i2c.o
 .debug_aranges
                0x000009a8       0x98 build/default/production/_ext/1871970537/drv_spi.o
 .debug_aranges
                0x00000a40       0xd8 build/default/production/_ext/1805174553/drv_spi_sys_queue_fifo.o
 .debug_aranges
                0x00000b18       0xe8 build/default/production/_ext/1590698352/drv_usart.o
 .debug_aranges
                0x00000c00       0x48 build/default/production/_ext/1590698352/drv_usart_byte_model.o
 .debug_aranges
                0x00000c48       0x48 build/default/production/_ext/2147425457/sys_int_pic32.o
 .debug_aranges
                0x00000c90       0x20 /opt/microchip/xc32/v1.44/bin/bin/../../lib/gcc/pic32mx/4.8.3/libgcc.a(floatunsisf.o)
 .debug_aranges
                0x00000cb0       0x20 /opt/microchip/xc32/v1.44/bin/bin/../../lib/gcc/pic32mx/4.8.3/../../../../pic32mx/lib/libpic32.a(default-bootstrap-exception-handler.o)
 .debug_aranges
                0x00000cd0       0x20 /opt/microchip/xc32/v1.44/bin/bin/../../lib/gcc/pic32mx/4.8.3/../../../../pic32mx/lib/libpic32.a(default-on-reset.o)
 .debug_aranges
                0x00000cf0       0x20 /opt/microchip/xc32/v1.44/bin/bin/../../lib/gcc/pic32mx/4.8.3/../../../../pic32mx/lib/libpic32.a(default-on-bootstrap.o)
 .debug_aranges
                0x00000d10       0x20 /opt/microchip/xc32/v1.44/bin/bin/../../lib/gcc/pic32mx/4.8.3/../../../../pic32mx/lib/libpic32.a(defaultinterrupt.o)
 .debug_aranges
                0x00000d30       0x20 /opt/microchip/xc32/v1.44/bin/bin/../../lib/gcc/pic32mx/4.8.3/../../../../pic32mx/lib/libc.a(sprintf_cdnopsuxX.eo)
 .debug_aranges
                0x00000d50       0x20 /opt/microchip/xc32/v1.44/bin/bin/../../lib/gcc/pic32mx/4.8.3/../../../../pic32mx/lib/libc.a(doprnt_cdnopsuxX.eo)
 .debug_aranges
                0x00000d70       0x20 /opt/microchip/xc32/v1.44/bin/bin/../../lib/gcc/pic32mx/4.8.3/../../../../pic32mx/lib/libc.a(_fputc_simple.o)
 .debug_aranges
                0x00000d90       0x20 /opt/microchip/xc32/v1.44/bin/bin/../../lib/gcc/pic32mx/4.8.3/../../../../pic32mx/lib/libc.a(_flsbuf_simple.o)
 .debug_aranges
                0x00000db0       0x20 /opt/microchip/xc32/v1.44/bin/bin/../../lib/gcc/pic32mx/4.8.3/libgcc.a(_udivdi3.o)
 .debug_aranges
                0x00000dd0       0x20 /opt/microchip/xc32/v1.44/bin/bin/../../lib/gcc/pic32mx/4.8.3/libgcc.a(_umoddi3.o)
 .debug_aranges
                0x00000df0       0x20 /opt/microchip/xc32/v1.44/bin/bin/../../lib/gcc/pic32mx/4.8.3/../../../../pic32mx/lib/libpic32.a(write.o)
 .debug_aranges
                0x00000e10       0x20 /opt/microchip/xc32/v1.44/bin/bin/../../lib/gcc/pic32mx/4.8.3/../../../../pic32mx/lib/libpic32.a(_mon_putc.o)

.debug_pubnames
 *(.debug_pubnames)

.debug_info     0x00000000    0x40312
 *(.debug_info .gnu.linkonce.wi.*)
 .debug_info    0x00000000      0x16f build/default/production/ChrFont0.o
 .debug_info    0x0000016f      0x16b build/default/production/FillPat.o
 .debug_info    0x000002da      0x528 build/default/production/OledChar.o
 .debug_info    0x00000802     0x1821 build/default/production/OledDriver.o
 .debug_info    0x00002023      0xcc2 build/default/production/OledGrph.o
 .debug_info    0x00002ce5      0xe7f build/default/production/_ext/1047219354/drv_oc_mapping.o
 .debug_info    0x00003b64     0x22d7 build/default/production/_ext/1047219354/drv_oc_static.o
 .debug_info    0x00005e3b     0x280e build/default/production/_ext/977502197/drv_spi_tasks.o
 .debug_info    0x00008649     0x3891 build/default/production/_ext/977502197/drv_spi_api.o
 .debug_info    0x0000beda     0x1f49 build/default/production/_ext/977502197/drv_spi_master_rm_tasks.o
 .debug_info    0x0000de23     0x344c build/default/production/_ext/1407244131/drv_tmr_static.o
 .debug_info    0x0001126f     0x17d9 build/default/production/_ext/1407244131/drv_tmr_mapping.o
 .debug_info    0x00012a48     0x1fce build/default/production/_ext/639803181/sys_clk.o
 .debug_info    0x00014a16     0x205a build/default/production/_ext/639803181/sys_clk_pic32mx.o
 .debug_info    0x00016a70     0x15f7 build/default/production/_ext/340578644/sys_devcon.o
 .debug_info    0x00018067     0x1750 build/default/production/_ext/340578644/sys_devcon_pic32mx.o
 .debug_info    0x000197b7     0x3c51 build/default/production/_ext/822048611/sys_ports_static.o
 .debug_info    0x0001d408     0x38c4 build/default/production/_ext/1688732426/system_init.o
 .debug_info    0x00020ccc     0x12c7 build/default/production/_ext/1688732426/system_interrupt.o
 .debug_info    0x00021f93      0xb5f build/default/production/_ext/1688732426/system_exceptions.o
 .debug_info    0x00022af2      0x915 build/default/production/_ext/1688732426/system_tasks.o
 .debug_info    0x00023407      0xfc8 build/default/production/_ext/1360937237/app.o
 .debug_info    0x000243cf      0x19d build/default/production/_ext/1360937237/main.o
 .debug_info    0x0002456c      0xdf7 build/default/production/_ext/1360937237/bioshield.o
 .debug_info    0x00025363     0x12ea build/default/production/_ext/1360937237/orient.o
 .debug_info    0x0002664d     0x85e8 build/default/production/_ext/1022305019/drv_i2c.o
 .debug_info    0x0002ec35     0x4c98 build/default/production/_ext/1871970537/drv_spi.o
 .debug_info    0x000338cd     0x1b77 build/default/production/_ext/1805174553/drv_spi_sys_queue_fifo.o
 .debug_info    0x00035444     0x5d74 build/default/production/_ext/1590698352/drv_usart.o
 .debug_info    0x0003b1b8     0x2702 build/default/production/_ext/1590698352/drv_usart_byte_model.o
 .debug_info    0x0003d8ba     0x11d3 build/default/production/_ext/2147425457/sys_int_pic32.o
 .debug_info    0x0003ea8d      0x12f /opt/microchip/xc32/v1.44/bin/bin/../../lib/gcc/pic32mx/4.8.3/libgcc.a(floatunsisf.o)
 .debug_info    0x0003ebbc       0xf5 /opt/microchip/xc32/v1.44/bin/bin/../../lib/gcc/pic32mx/4.8.3/../../../../pic32mx/lib/libpic32.a(default-bootstrap-exception-handler.o)
 .debug_info    0x0003ecb1       0xce /opt/microchip/xc32/v1.44/bin/bin/../../lib/gcc/pic32mx/4.8.3/../../../../pic32mx/lib/libpic32.a(default-on-reset.o)
 .debug_info    0x0003ed7f       0xd6 /opt/microchip/xc32/v1.44/bin/bin/../../lib/gcc/pic32mx/4.8.3/../../../../pic32mx/lib/libpic32.a(default-on-bootstrap.o)
 .debug_info    0x0003ee55       0xe8 /opt/microchip/xc32/v1.44/bin/bin/../../lib/gcc/pic32mx/4.8.3/../../../../pic32mx/lib/libpic32.a(defaultinterrupt.o)
 .debug_info    0x0003ef3d       0xd3 /opt/microchip/xc32/v1.44/bin/bin/../../lib/gcc/pic32mx/4.8.3/../../../../pic32mx/lib/libc.a(sprintf_cdnopsuxX.eo)
 .debug_info    0x0003f010       0xd4 /opt/microchip/xc32/v1.44/bin/bin/../../lib/gcc/pic32mx/4.8.3/../../../../pic32mx/lib/libc.a(doprnt_cdnopsuxX.eo)
 .debug_info    0x0003f0e4       0xc4 /opt/microchip/xc32/v1.44/bin/bin/../../lib/gcc/pic32mx/4.8.3/../../../../pic32mx/lib/libc.a(_fputc_simple.o)
 .debug_info    0x0003f1a8       0xc7 /opt/microchip/xc32/v1.44/bin/bin/../../lib/gcc/pic32mx/4.8.3/../../../../pic32mx/lib/libc.a(_flsbuf_simple.o)
 .debug_info    0x0003f26f      0x76f /opt/microchip/xc32/v1.44/bin/bin/../../lib/gcc/pic32mx/4.8.3/libgcc.a(_udivdi3.o)
 .debug_info    0x0003f9de      0x7ac /opt/microchip/xc32/v1.44/bin/bin/../../lib/gcc/pic32mx/4.8.3/libgcc.a(_umoddi3.o)
 .debug_info    0x0004018a       0xc0 /opt/microchip/xc32/v1.44/bin/bin/../../lib/gcc/pic32mx/4.8.3/../../../../pic32mx/lib/libpic32.a(write.o)
 .debug_info    0x0004024a       0xc8 /opt/microchip/xc32/v1.44/bin/bin/../../lib/gcc/pic32mx/4.8.3/../../../../pic32mx/lib/libpic32.a(_mon_putc.o)

.debug_abbrev   0x00000000     0x4dde
 *(.debug_abbrev)
 .debug_abbrev  0x00000000       0x52 build/default/production/ChrFont0.o
 .debug_abbrev  0x00000052       0x52 build/default/production/FillPat.o
 .debug_abbrev  0x000000a4      0x16f build/default/production/OledChar.o
 .debug_abbrev  0x00000213      0x2ac build/default/production/OledDriver.o
 .debug_abbrev  0x000004bf      0x226 build/default/production/OledGrph.o
 .debug_abbrev  0x000006e5      0x1be build/default/production/_ext/1047219354/drv_oc_mapping.o
 .debug_abbrev  0x000008a3      0x22f build/default/production/_ext/1047219354/drv_oc_static.o
 .debug_abbrev  0x00000ad2      0x2fc build/default/production/_ext/977502197/drv_spi_tasks.o
 .debug_abbrev  0x00000dce      0x2e9 build/default/production/_ext/977502197/drv_spi_api.o
 .debug_abbrev  0x000010b7      0x291 build/default/production/_ext/977502197/drv_spi_master_rm_tasks.o
 .debug_abbrev  0x00001348      0x37f build/default/production/_ext/1407244131/drv_tmr_static.o
 .debug_abbrev  0x000016c7      0x2cc build/default/production/_ext/1407244131/drv_tmr_mapping.o
 .debug_abbrev  0x00001993      0x392 build/default/production/_ext/639803181/sys_clk.o
 .debug_abbrev  0x00001d25      0x389 build/default/production/_ext/639803181/sys_clk_pic32mx.o
 .debug_abbrev  0x000020ae      0x27b build/default/production/_ext/340578644/sys_devcon.o
 .debug_abbrev  0x00002329      0x20f build/default/production/_ext/340578644/sys_devcon_pic32mx.o
 .debug_abbrev  0x00002538      0x279 build/default/production/_ext/822048611/sys_ports_static.o
 .debug_abbrev  0x000027b1      0x2d1 build/default/production/_ext/1688732426/system_init.o
 .debug_abbrev  0x00002a82      0x1bd build/default/production/_ext/1688732426/system_interrupt.o
 .debug_abbrev  0x00002c3f       0xef build/default/production/_ext/1688732426/system_exceptions.o
 .debug_abbrev  0x00002d2e       0xc6 build/default/production/_ext/1688732426/system_tasks.o
 .debug_abbrev  0x00002df4      0x17f build/default/production/_ext/1360937237/app.o
 .debug_abbrev  0x00002f73       0x93 build/default/production/_ext/1360937237/main.o
 .debug_abbrev  0x00003006      0x193 build/default/production/_ext/1360937237/bioshield.o
 .debug_abbrev  0x00003199      0x207 build/default/production/_ext/1360937237/orient.o
 .debug_abbrev  0x000033a0      0x453 build/default/production/_ext/1022305019/drv_i2c.o
 .debug_abbrev  0x000037f3      0x4be build/default/production/_ext/1871970537/drv_spi.o
 .debug_abbrev  0x00003cb1      0x2c1 build/default/production/_ext/1805174553/drv_spi_sys_queue_fifo.o
 .debug_abbrev  0x00003f72      0x4a4 build/default/production/_ext/1590698352/drv_usart.o
 .debug_abbrev  0x00004416      0x331 build/default/production/_ext/1590698352/drv_usart_byte_model.o
 .debug_abbrev  0x00004747      0x226 build/default/production/_ext/2147425457/sys_int_pic32.o
 .debug_abbrev  0x0000496d       0x62 /opt/microchip/xc32/v1.44/bin/bin/../../lib/gcc/pic32mx/4.8.3/libgcc.a(floatunsisf.o)
 .debug_abbrev  0x000049cf       0x28 /opt/microchip/xc32/v1.44/bin/bin/../../lib/gcc/pic32mx/4.8.3/../../../../pic32mx/lib/libpic32.a(default-bootstrap-exception-handler.o)
 .debug_abbrev  0x000049f7       0x28 /opt/microchip/xc32/v1.44/bin/bin/../../lib/gcc/pic32mx/4.8.3/../../../../pic32mx/lib/libpic32.a(default-on-reset.o)
 .debug_abbrev  0x00004a1f       0x28 /opt/microchip/xc32/v1.44/bin/bin/../../lib/gcc/pic32mx/4.8.3/../../../../pic32mx/lib/libpic32.a(default-on-bootstrap.o)
 .debug_abbrev  0x00004a47       0x28 /opt/microchip/xc32/v1.44/bin/bin/../../lib/gcc/pic32mx/4.8.3/../../../../pic32mx/lib/libpic32.a(defaultinterrupt.o)
 .debug_abbrev  0x00004a6f       0x28 /opt/microchip/xc32/v1.44/bin/bin/../../lib/gcc/pic32mx/4.8.3/../../../../pic32mx/lib/libc.a(sprintf_cdnopsuxX.eo)
 .debug_abbrev  0x00004a97       0x28 /opt/microchip/xc32/v1.44/bin/bin/../../lib/gcc/pic32mx/4.8.3/../../../../pic32mx/lib/libc.a(doprnt_cdnopsuxX.eo)
 .debug_abbrev  0x00004abf       0x28 /opt/microchip/xc32/v1.44/bin/bin/../../lib/gcc/pic32mx/4.8.3/../../../../pic32mx/lib/libc.a(_fputc_simple.o)
 .debug_abbrev  0x00004ae7       0x28 /opt/microchip/xc32/v1.44/bin/bin/../../lib/gcc/pic32mx/4.8.3/../../../../pic32mx/lib/libc.a(_flsbuf_simple.o)
 .debug_abbrev  0x00004b0f      0x138 /opt/microchip/xc32/v1.44/bin/bin/../../lib/gcc/pic32mx/4.8.3/libgcc.a(_udivdi3.o)
 .debug_abbrev  0x00004c47      0x147 /opt/microchip/xc32/v1.44/bin/bin/../../lib/gcc/pic32mx/4.8.3/libgcc.a(_umoddi3.o)
 .debug_abbrev  0x00004d8e       0x28 /opt/microchip/xc32/v1.44/bin/bin/../../lib/gcc/pic32mx/4.8.3/../../../../pic32mx/lib/libpic32.a(write.o)
 .debug_abbrev  0x00004db6       0x28 /opt/microchip/xc32/v1.44/bin/bin/../../lib/gcc/pic32mx/4.8.3/../../../../pic32mx/lib/libpic32.a(_mon_putc.o)

.debug_line     0x00000000     0xa464
 *(.debug_line)
 .debug_line    0x00000000       0xa4 build/default/production/ChrFont0.o
 .debug_line    0x000000a4       0xa3 build/default/production/FillPat.o
 .debug_line    0x00000147      0x181 build/default/production/OledChar.o
 .debug_line    0x000002c8      0x3dc build/default/production/OledDriver.o
 .debug_line    0x000006a4      0x3a0 build/default/production/OledGrph.o
 .debug_line    0x00000a44      0x2b5 build/default/production/_ext/1047219354/drv_oc_mapping.o
 .debug_line    0x00000cf9      0x4d9 build/default/production/_ext/1047219354/drv_oc_static.o
 .debug_line    0x000011d2      0x609 build/default/production/_ext/977502197/drv_spi_tasks.o
 .debug_line    0x000017db      0x723 build/default/production/_ext/977502197/drv_spi_api.o
 .debug_line    0x00001efe      0x4be build/default/production/_ext/977502197/drv_spi_master_rm_tasks.o
 .debug_line    0x000023bc      0x655 build/default/production/_ext/1407244131/drv_tmr_static.o
 .debug_line    0x00002a11      0x4cb build/default/production/_ext/1407244131/drv_tmr_mapping.o
 .debug_line    0x00002edc      0x563 build/default/production/_ext/639803181/sys_clk.o
 .debug_line    0x0000343f      0x611 build/default/production/_ext/639803181/sys_clk_pic32mx.o
 .debug_line    0x00003a50      0x653 build/default/production/_ext/340578644/sys_devcon.o
 .debug_line    0x000040a3      0x48f build/default/production/_ext/340578644/sys_devcon_pic32mx.o
 .debug_line    0x00004532      0x6af build/default/production/_ext/822048611/sys_ports_static.o
 .debug_line    0x00004be1      0x7ff build/default/production/_ext/1688732426/system_init.o
 .debug_line    0x000053e0      0x389 build/default/production/_ext/1688732426/system_interrupt.o
 .debug_line    0x00005769      0x175 build/default/production/_ext/1688732426/system_exceptions.o
 .debug_line    0x000058de      0x102 build/default/production/_ext/1688732426/system_tasks.o
 .debug_line    0x000059e0      0x2c4 build/default/production/_ext/1360937237/app.o
 .debug_line    0x00005ca4       0xb3 build/default/production/_ext/1360937237/main.o
 .debug_line    0x00005d57      0x29b build/default/production/_ext/1360937237/bioshield.o
 .debug_line    0x00005ff2      0x29e build/default/production/_ext/1360937237/orient.o
 .debug_line    0x00006290     0x14e6 build/default/production/_ext/1022305019/drv_i2c.o
 .debug_line    0x00007776      0x9ac build/default/production/_ext/1871970537/drv_spi.o
 .debug_line    0x00008122      0x464 build/default/production/_ext/1805174553/drv_spi_sys_queue_fifo.o
 .debug_line    0x00008586      0xd86 build/default/production/_ext/1590698352/drv_usart.o
 .debug_line    0x0000930c      0x5e0 build/default/production/_ext/1590698352/drv_usart_byte_model.o
 .debug_line    0x000098ec      0x343 build/default/production/_ext/2147425457/sys_int_pic32.o
 .debug_line    0x00009c2f       0x9a /opt/microchip/xc32/v1.44/bin/bin/../../lib/gcc/pic32mx/4.8.3/libgcc.a(floatunsisf.o)
 .debug_line    0x00009cc9       0xa7 /opt/microchip/xc32/v1.44/bin/bin/../../lib/gcc/pic32mx/4.8.3/../../../../pic32mx/lib/libpic32.a(default-bootstrap-exception-handler.o)
 .debug_line    0x00009d70       0x94 /opt/microchip/xc32/v1.44/bin/bin/../../lib/gcc/pic32mx/4.8.3/../../../../pic32mx/lib/libpic32.a(default-on-reset.o)
 .debug_line    0x00009e04       0x98 /opt/microchip/xc32/v1.44/bin/bin/../../lib/gcc/pic32mx/4.8.3/../../../../pic32mx/lib/libpic32.a(default-on-bootstrap.o)
 .debug_line    0x00009e9c       0xa6 /opt/microchip/xc32/v1.44/bin/bin/../../lib/gcc/pic32mx/4.8.3/../../../../pic32mx/lib/libpic32.a(defaultinterrupt.o)
 .debug_line    0x00009f42       0x81 /opt/microchip/xc32/v1.44/bin/bin/../../lib/gcc/pic32mx/4.8.3/../../../../pic32mx/lib/libc.a(sprintf_cdnopsuxX.eo)
 .debug_line    0x00009fc3       0x80 /opt/microchip/xc32/v1.44/bin/bin/../../lib/gcc/pic32mx/4.8.3/../../../../pic32mx/lib/libc.a(doprnt_cdnopsuxX.eo)
 .debug_line    0x0000a043       0x7f /opt/microchip/xc32/v1.44/bin/bin/../../lib/gcc/pic32mx/4.8.3/../../../../pic32mx/lib/libc.a(_fputc_simple.o)
 .debug_line    0x0000a0c2        0x0 /opt/microchip/xc32/v1.44/bin/bin/../../lib/gcc/pic32mx/4.8.3/../../../../pic32mx/lib/libc.a(ctype.o)
 .debug_line    0x0000a0c2        0x0 /opt/microchip/xc32/v1.44/bin/bin/../../lib/gcc/pic32mx/4.8.3/../../../../pic32mx/lib/libc.a(_iob.o)
 .debug_line    0x0000a0c2       0x80 /opt/microchip/xc32/v1.44/bin/bin/../../lib/gcc/pic32mx/4.8.3/../../../../pic32mx/lib/libc.a(_flsbuf_simple.o)
 .debug_line    0x0000a142       0xfd /opt/microchip/xc32/v1.44/bin/bin/../../lib/gcc/pic32mx/4.8.3/libgcc.a(_udivdi3.o)
 .debug_line    0x0000a23f      0x10f /opt/microchip/xc32/v1.44/bin/bin/../../lib/gcc/pic32mx/4.8.3/libgcc.a(_umoddi3.o)
 .debug_line    0x0000a34e       0x89 /opt/microchip/xc32/v1.44/bin/bin/../../lib/gcc/pic32mx/4.8.3/../../../../pic32mx/lib/libpic32.a(write.o)
 .debug_line    0x0000a3d7       0x8d /opt/microchip/xc32/v1.44/bin/bin/../../lib/gcc/pic32mx/4.8.3/../../../../pic32mx/lib/libpic32.a(_mon_putc.o)
 .debug_line    0x0000a464        0x0 /opt/microchip/xc32/v1.44/bin/bin/../../lib/gcc/pic32mx/4.8.3/../../../../pic32mx/lib/libpic32.a(xc32_uart.o)

.debug_frame    0x00000000     0x1e6c
 *(.debug_frame)
 .debug_frame   0x00000000       0xc0 build/default/production/OledChar.o
 .debug_frame   0x000000c0      0x174 build/default/production/OledDriver.o
 .debug_frame   0x00000234      0x238 build/default/production/OledGrph.o
 .debug_frame   0x0000046c       0xa8 build/default/production/_ext/1047219354/drv_oc_mapping.o
 .debug_frame   0x00000514       0xf0 build/default/production/_ext/1047219354/drv_oc_static.o
 .debug_frame   0x00000604       0x38 build/default/production/_ext/977502197/drv_spi_tasks.o
 .debug_frame   0x0000063c       0x3c build/default/production/_ext/977502197/drv_spi_api.o
 .debug_frame   0x00000678       0x30 build/default/production/_ext/977502197/drv_spi_master_rm_tasks.o
 .debug_frame   0x000006a8       0xf8 build/default/production/_ext/1407244131/drv_tmr_static.o
 .debug_frame   0x000007a0      0x26c build/default/production/_ext/1407244131/drv_tmr_mapping.o
 .debug_frame   0x00000a0c      0x134 build/default/production/_ext/639803181/sys_clk.o
 .debug_frame   0x00000b40      0x138 build/default/production/_ext/639803181/sys_clk_pic32mx.o
 .debug_frame   0x00000c78       0xe8 build/default/production/_ext/340578644/sys_devcon.o
 .debug_frame   0x00000d60       0x28 build/default/production/_ext/340578644/sys_devcon_pic32mx.o
 .debug_frame   0x00000d88      0x1f0 build/default/production/_ext/822048611/sys_ports_static.o
 .debug_frame   0x00000f78       0x2c build/default/production/_ext/1688732426/system_init.o
 .debug_frame   0x00000fa4      0x164 build/default/production/_ext/1688732426/system_interrupt.o
 .debug_frame   0x00001108       0x28 build/default/production/_ext/1688732426/system_exceptions.o
 .debug_frame   0x00001130       0x28 build/default/production/_ext/1688732426/system_tasks.o
 .debug_frame   0x00001158       0x40 build/default/production/_ext/1360937237/app.o
 .debug_frame   0x00001198       0x28 build/default/production/_ext/1360937237/main.o
 .debug_frame   0x000011c0       0x40 build/default/production/_ext/1360937237/bioshield.o
 .debug_frame   0x00001200       0x4c build/default/production/_ext/1360937237/orient.o
 .debug_frame   0x0000124c      0x298 build/default/production/_ext/1022305019/drv_i2c.o
 .debug_frame   0x000014e4      0x1a4 build/default/production/_ext/1871970537/drv_spi.o
 .debug_frame   0x00001688      0x22c build/default/production/_ext/1805174553/drv_spi_sys_queue_fifo.o
 .debug_frame   0x000018b4      0x280 build/default/production/_ext/1590698352/drv_usart.o
 .debug_frame   0x00001b34       0xa0 build/default/production/_ext/1590698352/drv_usart_byte_model.o
 .debug_frame   0x00001bd4       0x90 build/default/production/_ext/2147425457/sys_int_pic32.o
 .debug_frame   0x00001c64       0x28 /opt/microchip/xc32/v1.44/bin/bin/../../lib/gcc/pic32mx/4.8.3/libgcc.a(floatunsisf.o)
 .debug_frame   0x00001c8c       0x2c /opt/microchip/xc32/v1.44/bin/bin/../../lib/gcc/pic32mx/4.8.3/../../../../pic32mx/lib/libpic32.a(default-bootstrap-exception-handler.o)
 .debug_frame   0x00001cb8       0x20 /opt/microchip/xc32/v1.44/bin/bin/../../lib/gcc/pic32mx/4.8.3/../../../../pic32mx/lib/libpic32.a(default-on-reset.o)
 .debug_frame   0x00001cd8       0x20 /opt/microchip/xc32/v1.44/bin/bin/../../lib/gcc/pic32mx/4.8.3/../../../../pic32mx/lib/libpic32.a(default-on-bootstrap.o)
 .debug_frame   0x00001cf8       0x20 /opt/microchip/xc32/v1.44/bin/bin/../../lib/gcc/pic32mx/4.8.3/../../../../pic32mx/lib/libpic32.a(defaultinterrupt.o)
 .debug_frame   0x00001d18       0x28 /opt/microchip/xc32/v1.44/bin/bin/../../lib/gcc/pic32mx/4.8.3/../../../../pic32mx/lib/libc.a(sprintf_cdnopsuxX.eo)
 .debug_frame   0x00001d40       0x38 /opt/microchip/xc32/v1.44/bin/bin/../../lib/gcc/pic32mx/4.8.3/../../../../pic32mx/lib/libc.a(doprnt_cdnopsuxX.eo)
 .debug_frame   0x00001d78       0x2c /opt/microchip/xc32/v1.44/bin/bin/../../lib/gcc/pic32mx/4.8.3/../../../../pic32mx/lib/libc.a(_fputc_simple.o)
 .debug_frame   0x00001da4       0x28 /opt/microchip/xc32/v1.44/bin/bin/../../lib/gcc/pic32mx/4.8.3/../../../../pic32mx/lib/libc.a(_flsbuf_simple.o)
 .debug_frame   0x00001dcc       0x20 /opt/microchip/xc32/v1.44/bin/bin/../../lib/gcc/pic32mx/4.8.3/libgcc.a(_udivdi3.o)
 .debug_frame   0x00001dec       0x20 /opt/microchip/xc32/v1.44/bin/bin/../../lib/gcc/pic32mx/4.8.3/libgcc.a(_umoddi3.o)
 .debug_frame   0x00001e0c       0x38 /opt/microchip/xc32/v1.44/bin/bin/../../lib/gcc/pic32mx/4.8.3/../../../../pic32mx/lib/libpic32.a(write.o)
 .debug_frame   0x00001e44       0x28 /opt/microchip/xc32/v1.44/bin/bin/../../lib/gcc/pic32mx/4.8.3/../../../../pic32mx/lib/libpic32.a(_mon_putc.o)

.debug_str      0x00000000      0xb43
 *(.debug_str)
 .debug_str     0x00000000        0x0 build/default/production/ChrFont0.o
 .debug_str     0x00000000        0x0 build/default/production/FillPat.o
 .debug_str     0x00000000        0x0 build/default/production/OledChar.o
 .debug_str     0x00000000        0x0 build/default/production/OledDriver.o
 .debug_str     0x00000000       0x56 build/default/production/OledGrph.o
 .debug_str     0x00000056       0x13 build/default/production/_ext/1047219354/drv_oc_mapping.o
 .debug_str     0x00000069       0x44 build/default/production/_ext/1047219354/drv_oc_static.o
 .debug_str     0x000000ad       0x59 build/default/production/_ext/977502197/drv_spi_tasks.o
 .debug_str     0x00000106       0xde build/default/production/_ext/977502197/drv_spi_api.o
 .debug_str     0x000001e4       0x1e build/default/production/_ext/977502197/drv_spi_master_rm_tasks.o
 .debug_str     0x00000202       0x68 build/default/production/_ext/1407244131/drv_tmr_static.o
 .debug_str     0x0000026a        0xe build/default/production/_ext/1407244131/drv_tmr_mapping.o
 .debug_str     0x00000278       0x9a build/default/production/_ext/639803181/sys_clk.o
 .debug_str     0x00000312      0x118 build/default/production/_ext/639803181/sys_clk_pic32mx.o
 .debug_str     0x0000042a       0x16 build/default/production/_ext/340578644/sys_devcon.o
 .debug_str     0x00000440        0x6 build/default/production/_ext/340578644/sys_devcon_pic32mx.o
 .debug_str     0x00000446       0x55 build/default/production/_ext/822048611/sys_ports_static.o
 .debug_str     0x0000049b       0x6e build/default/production/_ext/1688732426/system_init.o
 .debug_str     0x00000509        0x0 build/default/production/_ext/1688732426/system_interrupt.o
 .debug_str     0x00000509        0x0 build/default/production/_ext/1688732426/system_exceptions.o
 .debug_str     0x00000509        0x0 build/default/production/_ext/1688732426/system_tasks.o
 .debug_str     0x00000509        0x0 build/default/production/_ext/1360937237/app.o
 .debug_str     0x00000509        0x0 build/default/production/_ext/1360937237/main.o
 .debug_str     0x00000509        0x0 build/default/production/_ext/1360937237/bioshield.o
 .debug_str     0x00000509       0x20 build/default/production/_ext/1360937237/orient.o
 .debug_str     0x00000529      0x145 build/default/production/_ext/1022305019/drv_i2c.o
 .debug_str     0x0000066e      0x178 build/default/production/_ext/1871970537/drv_spi.o
 .debug_str     0x000007e6      0x147 build/default/production/_ext/1805174553/drv_spi_sys_queue_fifo.o
 .debug_str     0x0000092d      0x1bb build/default/production/_ext/1590698352/drv_usart.o
 .debug_str     0x00000ae8       0x2e build/default/production/_ext/1590698352/drv_usart_byte_model.o
 .debug_str     0x00000b16       0x2d build/default/production/_ext/2147425457/sys_int_pic32.o
 .debug_str     0x00000b43        0x0 /opt/microchip/xc32/v1.44/bin/bin/../../lib/gcc/pic32mx/4.8.3/libgcc.a(floatunsisf.o)
 .debug_str     0x00000b43        0x0 /opt/microchip/xc32/v1.44/bin/bin/../../lib/gcc/pic32mx/4.8.3/../../../../pic32mx/lib/libpic32.a(default-bootstrap-exception-handler.o)
 .debug_str     0x00000b43        0x0 /opt/microchip/xc32/v1.44/bin/bin/../../lib/gcc/pic32mx/4.8.3/../../../../pic32mx/lib/libpic32.a(default-on-reset.o)
 .debug_str     0x00000b43        0x0 /opt/microchip/xc32/v1.44/bin/bin/../../lib/gcc/pic32mx/4.8.3/../../../../pic32mx/lib/libpic32.a(default-on-bootstrap.o)
 .debug_str     0x00000b43        0x0 /opt/microchip/xc32/v1.44/bin/bin/../../lib/gcc/pic32mx/4.8.3/../../../../pic32mx/lib/libpic32.a(defaultinterrupt.o)
 .debug_str     0x00000b43        0x0 /opt/microchip/xc32/v1.44/bin/bin/../../lib/gcc/pic32mx/4.8.3/../../../../pic32mx/lib/libc.a(sprintf_cdnopsuxX.eo)
 .debug_str     0x00000b43        0x0 /opt/microchip/xc32/v1.44/bin/bin/../../lib/gcc/pic32mx/4.8.3/../../../../pic32mx/lib/libc.a(doprnt_cdnopsuxX.eo)
 .debug_str     0x00000b43        0x0 /opt/microchip/xc32/v1.44/bin/bin/../../lib/gcc/pic32mx/4.8.3/../../../../pic32mx/lib/libc.a(_fputc_simple.o)
 .debug_str     0x00000b43        0x0 /opt/microchip/xc32/v1.44/bin/bin/../../lib/gcc/pic32mx/4.8.3/../../../../pic32mx/lib/libc.a(ctype.o)
 .debug_str     0x00000b43        0x0 /opt/microchip/xc32/v1.44/bin/bin/../../lib/gcc/pic32mx/4.8.3/../../../../pic32mx/lib/libc.a(_iob.o)
 .debug_str     0x00000b43        0x0 /opt/microchip/xc32/v1.44/bin/bin/../../lib/gcc/pic32mx/4.8.3/../../../../pic32mx/lib/libc.a(_flsbuf_simple.o)
 .debug_str     0x00000b43        0x0 /opt/microchip/xc32/v1.44/bin/bin/../../lib/gcc/pic32mx/4.8.3/libgcc.a(_udivdi3.o)
 .debug_str     0x00000b43        0x0 /opt/microchip/xc32/v1.44/bin/bin/../../lib/gcc/pic32mx/4.8.3/libgcc.a(_umoddi3.o)
 .debug_str     0x00000b43        0x0 /opt/microchip/xc32/v1.44/bin/bin/../../lib/gcc/pic32mx/4.8.3/../../../../pic32mx/lib/libpic32.a(write.o)
 .debug_str     0x00000b43        0x0 /opt/microchip/xc32/v1.44/bin/bin/../../lib/gcc/pic32mx/4.8.3/../../../../pic32mx/lib/libpic32.a(_mon_putc.o)
 .debug_str     0x00000b43        0x0 /opt/microchip/xc32/v1.44/bin/bin/../../lib/gcc/pic32mx/4.8.3/../../../../pic32mx/lib/libpic32.a(xc32_uart.o)

.debug_loc      0x00000000     0xc455
 *(.debug_loc)
 .debug_loc     0x00000000      0x1cd build/default/production/OledChar.o
 .debug_loc     0x000001cd      0x14d build/default/production/OledDriver.o
 .debug_loc     0x0000031a      0x995 build/default/production/OledGrph.o
 .debug_loc     0x00000caf      0x26b build/default/production/_ext/1047219354/drv_oc_mapping.o
 .debug_loc     0x00000f1a       0x42 build/default/production/_ext/1047219354/drv_oc_static.o
 .debug_loc     0x00000f5c      0x685 build/default/production/_ext/977502197/drv_spi_tasks.o
 .debug_loc     0x000015e1      0x617 build/default/production/_ext/977502197/drv_spi_api.o
 .debug_loc     0x00001bf8      0x186 build/default/production/_ext/977502197/drv_spi_master_rm_tasks.o
 .debug_loc     0x00001d7e      0x267 build/default/production/_ext/1407244131/drv_tmr_static.o
 .debug_loc     0x00001fe5      0x3a8 build/default/production/_ext/1407244131/drv_tmr_mapping.o
 .debug_loc     0x0000238d      0x18f build/default/production/_ext/639803181/sys_clk.o
 .debug_loc     0x0000251c      0xb8c build/default/production/_ext/639803181/sys_clk_pic32mx.o
 .debug_loc     0x000030a8       0xf0 build/default/production/_ext/340578644/sys_devcon.o
 .debug_loc     0x00003198       0xda build/default/production/_ext/340578644/sys_devcon_pic32mx.o
 .debug_loc     0x00003272      0x73d build/default/production/_ext/822048611/sys_ports_static.o
 .debug_loc     0x000039af       0x21 build/default/production/_ext/1688732426/system_init.o
 .debug_loc     0x000039d0       0x3d build/default/production/_ext/1360937237/app.o
 .debug_loc     0x00003a0d      0x1b7 build/default/production/_ext/1360937237/orient.o
 .debug_loc     0x00003bc4     0x32d8 build/default/production/_ext/1022305019/drv_i2c.o
 .debug_loc     0x00006e9c     0x14a5 build/default/production/_ext/1871970537/drv_spi.o
 .debug_loc     0x00008341      0xbb9 build/default/production/_ext/1805174553/drv_spi_sys_queue_fifo.o
 .debug_loc     0x00008efa     0x1ba8 build/default/production/_ext/1590698352/drv_usart.o
 .debug_loc     0x0000aaa2      0x3ab build/default/production/_ext/1590698352/drv_usart_byte_model.o
 .debug_loc     0x0000ae4d       0x69 build/default/production/_ext/2147425457/sys_int_pic32.o
 .debug_loc     0x0000aeb6       0x74 /opt/microchip/xc32/v1.44/bin/bin/../../lib/gcc/pic32mx/4.8.3/libgcc.a(floatunsisf.o)
 .debug_loc     0x0000af2a       0x2c /opt/microchip/xc32/v1.44/bin/bin/../../lib/gcc/pic32mx/4.8.3/../../../../pic32mx/lib/libpic32.a(default-bootstrap-exception-handler.o)
 .debug_loc     0x0000af56      0xa6a /opt/microchip/xc32/v1.44/bin/bin/../../lib/gcc/pic32mx/4.8.3/libgcc.a(_udivdi3.o)
 .debug_loc     0x0000b9c0      0xa3d /opt/microchip/xc32/v1.44/bin/bin/../../lib/gcc/pic32mx/4.8.3/libgcc.a(_umoddi3.o)
 .debug_loc     0x0000c3fd       0x38 /opt/microchip/xc32/v1.44/bin/bin/../../lib/gcc/pic32mx/4.8.3/../../../../pic32mx/lib/libpic32.a(write.o)
 .debug_loc     0x0000c435       0x20 /opt/microchip/xc32/v1.44/bin/bin/../../lib/gcc/pic32mx/4.8.3/../../../../pic32mx/lib/libpic32.a(_mon_putc.o)

.debug_macinfo
 *(.debug_macinfo)

.debug_weaknames
 *(.debug_weaknames)

.debug_funcnames
 *(.debug_funcnames)

.debug_typenames
 *(.debug_typenames)

.debug_varnames
 *(.debug_varnames)

.debug_pubtypes
 *(.debug_pubtypes)

.debug_ranges   0x00000000      0xe70
 *(.debug_ranges)
 .debug_ranges  0x00000000       0x50 build/default/production/OledChar.o
 .debug_ranges  0x00000050       0x80 build/default/production/OledDriver.o
 .debug_ranges  0x000000d0       0xd8 build/default/production/OledGrph.o
 .debug_ranges  0x000001a8       0x40 build/default/production/_ext/1047219354/drv_oc_mapping.o
 .debug_ranges  0x000001e8       0x78 build/default/production/_ext/1047219354/drv_oc_static.o
 .debug_ranges  0x00000260       0x58 build/default/production/_ext/977502197/drv_spi_tasks.o
 .debug_ranges  0x000002b8       0x18 build/default/production/_ext/977502197/drv_spi_api.o
 .debug_ranges  0x000002d0       0x30 build/default/production/_ext/977502197/drv_spi_master_rm_tasks.o
 .debug_ranges  0x00000300       0x78 build/default/production/_ext/1407244131/drv_tmr_static.o
 .debug_ranges  0x00000378       0xd8 build/default/production/_ext/1407244131/drv_tmr_mapping.o
 .debug_ranges  0x00000450       0x78 build/default/production/_ext/639803181/sys_clk.o
 .debug_ranges  0x000004c8       0xa0 build/default/production/_ext/639803181/sys_clk_pic32mx.o
 .debug_ranges  0x00000568       0x68 build/default/production/_ext/340578644/sys_devcon.o
 .debug_ranges  0x000005d0       0x10 build/default/production/_ext/340578644/sys_devcon_pic32mx.o
 .debug_ranges  0x000005e0       0xf8 build/default/production/_ext/822048611/sys_ports_static.o
 .debug_ranges  0x000006d8       0x10 build/default/production/_ext/1688732426/system_init.o
 .debug_ranges  0x000006e8       0x38 build/default/production/_ext/1688732426/system_interrupt.o
 .debug_ranges  0x00000720       0x10 build/default/production/_ext/1688732426/system_exceptions.o
 .debug_ranges  0x00000730       0x10 build/default/production/_ext/1688732426/system_tasks.o
 .debug_ranges  0x00000740       0x18 build/default/production/_ext/1360937237/app.o
 .debug_ranges  0x00000758       0x10 build/default/production/_ext/1360937237/main.o
 .debug_ranges  0x00000768       0x18 build/default/production/_ext/1360937237/bioshield.o
 .debug_ranges  0x00000780       0x18 build/default/production/_ext/1360937237/orient.o
 .debug_ranges  0x00000798      0x120 build/default/production/_ext/1022305019/drv_i2c.o
 .debug_ranges  0x000008b8       0xd0 build/default/production/_ext/1871970537/drv_spi.o
 .debug_ranges  0x00000988       0xe0 build/default/production/_ext/1805174553/drv_spi_sys_queue_fifo.o
 .debug_ranges  0x00000a68      0x170 build/default/production/_ext/1590698352/drv_usart.o
 .debug_ranges  0x00000bd8       0x38 build/default/production/_ext/1590698352/drv_usart_byte_model.o
 .debug_ranges  0x00000c10       0x50 build/default/production/_ext/2147425457/sys_int_pic32.o
 .debug_ranges  0x00000c60       0x10 /opt/microchip/xc32/v1.44/bin/bin/../../lib/gcc/pic32mx/4.8.3/../../../../pic32mx/lib/libpic32.a(default-bootstrap-exception-handler.o)
 .debug_ranges  0x00000c70       0x10 /opt/microchip/xc32/v1.44/bin/bin/../../lib/gcc/pic32mx/4.8.3/../../../../pic32mx/lib/libpic32.a(default-on-reset.o)
 .debug_ranges  0x00000c80       0x10 /opt/microchip/xc32/v1.44/bin/bin/../../lib/gcc/pic32mx/4.8.3/../../../../pic32mx/lib/libpic32.a(default-on-bootstrap.o)
 .debug_ranges  0x00000c90       0x10 /opt/microchip/xc32/v1.44/bin/bin/../../lib/gcc/pic32mx/4.8.3/../../../../pic32mx/lib/libpic32.a(defaultinterrupt.o)
 .debug_ranges  0x00000ca0       0x10 /opt/microchip/xc32/v1.44/bin/bin/../../lib/gcc/pic32mx/4.8.3/../../../../pic32mx/lib/libc.a(sprintf_cdnopsuxX.eo)
 .debug_ranges  0x00000cb0       0x10 /opt/microchip/xc32/v1.44/bin/bin/../../lib/gcc/pic32mx/4.8.3/../../../../pic32mx/lib/libc.a(doprnt_cdnopsuxX.eo)
 .debug_ranges  0x00000cc0       0x10 /opt/microchip/xc32/v1.44/bin/bin/../../lib/gcc/pic32mx/4.8.3/../../../../pic32mx/lib/libc.a(_fputc_simple.o)
 .debug_ranges  0x00000cd0       0x10 /opt/microchip/xc32/v1.44/bin/bin/../../lib/gcc/pic32mx/4.8.3/../../../../pic32mx/lib/libc.a(_flsbuf_simple.o)
 .debug_ranges  0x00000ce0       0x98 /opt/microchip/xc32/v1.44/bin/bin/../../lib/gcc/pic32mx/4.8.3/libgcc.a(_udivdi3.o)
 .debug_ranges  0x00000d78       0xd8 /opt/microchip/xc32/v1.44/bin/bin/../../lib/gcc/pic32mx/4.8.3/libgcc.a(_umoddi3.o)
 .debug_ranges  0x00000e50       0x10 /opt/microchip/xc32/v1.44/bin/bin/../../lib/gcc/pic32mx/4.8.3/../../../../pic32mx/lib/libpic32.a(write.o)
 .debug_ranges  0x00000e60       0x10 /opt/microchip/xc32/v1.44/bin/bin/../../lib/gcc/pic32mx/4.8.3/../../../../pic32mx/lib/libpic32.a(_mon_putc.o)

.gnu.attributes
                0x00000000       0x10
 *(.gnu.attributes)
 .gnu.attributes
                0x00000000       0x10 build/default/production/ChrFont0.o
 .gnu.attributes
                0x00000010       0x10 build/default/production/FillPat.o
 .gnu.attributes
                0x00000020       0x10 build/default/production/OledChar.o
 .gnu.attributes
                0x00000030       0x10 build/default/production/OledDriver.o
 .gnu.attributes
                0x00000040       0x10 build/default/production/OledGrph.o
 .gnu.attributes
                0x00000050       0x10 build/default/production/_ext/1047219354/drv_oc_mapping.o
 .gnu.attributes
                0x00000060       0x10 build/default/production/_ext/1047219354/drv_oc_static.o
 .gnu.attributes
                0x00000070       0x10 build/default/production/_ext/977502197/drv_spi_tasks.o
 .gnu.attributes
                0x00000080       0x10 build/default/production/_ext/977502197/drv_spi_api.o
 .gnu.attributes
                0x00000090       0x10 build/default/production/_ext/977502197/drv_spi_master_rm_tasks.o
 .gnu.attributes
                0x000000a0       0x10 build/default/production/_ext/1407244131/drv_tmr_static.o
 .gnu.attributes
                0x000000b0       0x10 build/default/production/_ext/1407244131/drv_tmr_mapping.o
 .gnu.attributes
                0x000000c0       0x10 build/default/production/_ext/639803181/sys_clk.o
 .gnu.attributes
                0x000000d0       0x10 build/default/production/_ext/639803181/sys_clk_pic32mx.o
 .gnu.attributes
                0x000000e0       0x10 build/default/production/_ext/340578644/sys_devcon.o
 .gnu.attributes
                0x000000f0       0x10 build/default/production/_ext/340578644/sys_devcon_pic32mx.o
 .gnu.attributes
                0x00000100       0x10 build/default/production/_ext/822048611/sys_ports_static.o
 .gnu.attributes
                0x00000110       0x10 build/default/production/_ext/1688732426/system_init.o
 .gnu.attributes
                0x00000120       0x10 build/default/production/_ext/1688732426/system_interrupt.o
 .gnu.attributes
                0x00000130       0x10 build/default/production/_ext/1688732426/system_exceptions.o
 .gnu.attributes
                0x00000140       0x10 build/default/production/_ext/1688732426/system_tasks.o
 .gnu.attributes
                0x00000150       0x10 build/default/production/_ext/1360937237/app.o
 .gnu.attributes
                0x00000160       0x10 build/default/production/_ext/1360937237/main.o
 .gnu.attributes
                0x00000170       0x10 build/default/production/_ext/1360937237/bioshield.o
 .gnu.attributes
                0x00000180       0x10 build/default/production/_ext/1360937237/orient.o
 .gnu.attributes
                0x00000190       0x10 build/default/production/_ext/1022305019/drv_i2c.o
 .gnu.attributes
                0x000001a0       0x10 build/default/production/_ext/1871970537/drv_spi.o
 .gnu.attributes
                0x000001b0       0x10 build/default/production/_ext/1805174553/drv_spi_sys_queue_fifo.o
 .gnu.attributes
                0x000001c0       0x10 build/default/production/_ext/1590698352/drv_usart.o
 .gnu.attributes
                0x000001d0       0x10 build/default/production/_ext/1590698352/drv_usart_byte_model.o
 .gnu.attributes
                0x000001e0       0x10 build/default/production/_ext/2147425457/sys_int_pic32.o
 .gnu.attributes
                0x000001f0       0x10 /opt/microchip/xc32/v1.44/bin/bin/../../lib/gcc/pic32mx/4.8.3/libgcc.a(floatunsisf.o)
 .gnu.attributes
                0x00000200       0x10 /opt/microchip/xc32/v1.44/bin/bin/../../lib/gcc/pic32mx/4.8.3/../../../../pic32mx/lib/libpic32.a(default-bootstrap-exception-handler.o)
 .gnu.attributes
                0x00000210       0x10 /opt/microchip/xc32/v1.44/bin/bin/../../lib/gcc/pic32mx/4.8.3/../../../../pic32mx/lib/libpic32.a(default-on-reset.o)
 .gnu.attributes
                0x00000220       0x10 /opt/microchip/xc32/v1.44/bin/bin/../../lib/gcc/pic32mx/4.8.3/../../../../pic32mx/lib/libpic32.a(default-on-bootstrap.o)
 .gnu.attributes
                0x00000230       0x10 /opt/microchip/xc32/v1.44/bin/bin/../../lib/gcc/pic32mx/4.8.3/../../../../pic32mx/lib/libpic32.a(defaultinterrupt.o)
 .gnu.attributes
                0x00000240       0x10 /opt/microchip/xc32/v1.44/bin/bin/../../lib/gcc/pic32mx/4.8.3/../../../../pic32mx/lib/libc.a(sprintf_cdnopsuxX.eo)
 .gnu.attributes
                0x00000250       0x10 /opt/microchip/xc32/v1.44/bin/bin/../../lib/gcc/pic32mx/4.8.3/../../../../pic32mx/lib/libc.a(doprnt_cdnopsuxX.eo)
 .gnu.attributes
                0x00000260       0x10 /opt/microchip/xc32/v1.44/bin/bin/../../lib/gcc/pic32mx/4.8.3/../../../../pic32mx/lib/libc.a(_fputc_simple.o)
 .gnu.attributes
                0x00000270       0x10 /opt/microchip/xc32/v1.44/bin/bin/../../lib/gcc/pic32mx/4.8.3/../../../../pic32mx/lib/libc.a(ctype.o)
 .gnu.attributes
                0x00000280       0x10 /opt/microchip/xc32/v1.44/bin/bin/../../lib/gcc/pic32mx/4.8.3/../../../../pic32mx/lib/libc.a(_iob.o)
 .gnu.attributes
                0x00000290       0x10 /opt/microchip/xc32/v1.44/bin/bin/../../lib/gcc/pic32mx/4.8.3/../../../../pic32mx/lib/libc.a(_flsbuf_simple.o)
 .gnu.attributes
                0x000002a0       0x10 /opt/microchip/xc32/v1.44/bin/bin/../../lib/gcc/pic32mx/4.8.3/libgcc.a(_udivdi3.o)
 .gnu.attributes
                0x000002b0       0x10 /opt/microchip/xc32/v1.44/bin/bin/../../lib/gcc/pic32mx/4.8.3/libgcc.a(_umoddi3.o)
 .gnu.attributes
                0x000002c0       0x10 /opt/microchip/xc32/v1.44/bin/bin/../../lib/gcc/pic32mx/4.8.3/../../../../pic32mx/lib/libpic32.a(write.o)
 .gnu.attributes
                0x000002d0       0x10 /opt/microchip/xc32/v1.44/bin/bin/../../lib/gcc/pic32mx/4.8.3/../../../../pic32mx/lib/libpic32.a(_mon_putc.o)
 .gnu.attributes
                0x000002e0       0x10 /opt/microchip/xc32/v1.44/bin/bin/../../lib/gcc/pic32mx/4.8.3/../../../../pic32mx/lib/libpic32.a(xc32_uart.o)
LOAD /opt/microchip/xc32/v1.44/bin/bin/../../lib/gcc/pic32mx/4.8.3/libgcc.a
START GROUP
LOAD /opt/microchip/xc32/v1.44/bin/bin/../../lib/gcc/pic32mx/4.8.3/../../../../pic32mx/lib/libpic32.a
LOAD /opt/microchip/xc32/v1.44/bin/bin/../../lib/gcc/pic32mx/4.8.3/../../../../pic32mx/lib/libdebug.a
LOAD /opt/microchip/xc32/v1.44/bin/bin/../../lib/gcc/pic32mx/4.8.3/../../../../pic32mx/lib/libpic32.a
LOAD /opt/microchip/xc32/v1.44/bin/bin/../../lib/gcc/pic32mx/4.8.3/../../../../pic32mx/lib/libc.a
LOAD /opt/microchip/xc32/v1.44/bin/bin/../../lib/gcc/pic32mx/4.8.3/../../../../pic32mx/lib/libc.a
LOAD /opt/microchip/xc32/v1.44/bin/bin/../../lib/gcc/pic32mx/4.8.3/../../../../pic32mx/lib/libm.a
LOAD /opt/microchip/xc32/v1.44/bin/bin/../../lib/gcc/pic32mx/4.8.3/../../../../pic32mx/lib/libe.a
LOAD /opt/microchip/xc32/v1.44/bin/bin/../../lib/gcc/pic32mx/4.8.3/../../../../pic32mx/lib/libdsp.a
LOAD /opt/microchip/xc32/v1.44/bin/bin/../../lib/gcc/pic32mx/4.8.3/libgcc.a
LOAD /opt/microchip/xc32/v1.44/bin/bin/../../lib/gcc/pic32mx/4.8.3/../../../../pic32mx/lib/libpic32.a
END GROUP
LOAD /opt/microchip/xc32/v1.44/bin/bin/../../lib/gcc/pic32mx/4.8.3/libgcc.a
OUTPUT(dist/default/production/mx32_harm.X.production.elf elf32-tradlittlemips)
LOAD stack
LOAD data_init

.reginfo        0x00000000       0x18
 .reginfo       0x00000000       0x18 /opt/microchip/xc32/v1.44/bin/bin/../../lib/gcc/pic32mx/4.8.3/../../../../pic32mx/lib/./proc/32MX320F128H/crt0_mips32r2.o

.stack          0xa0000b60      0x400
 .stack         0xa0000b60      0x400 stack

.bss            0xa0000494      0x588
 .bss           0xa0000494      0x370 build/default/production/_ext/1871970537/drv_spi.o
 .bss           0xa0000804      0x218 build/default/production/_ext/1022305019/drv_i2c.o

.data           0xa0000a1c       0x80
 .data          0xa0000a1c       0x80 build/default/production/_ext/1688732426/system_init.o
                0xa0000a1c                drvSpi0InitData

.bss            0xa0000a9c       0x44
 .bss           0xa0000a9c       0x44 /opt/microchip/xc32/v1.44/bin/bin/../../lib/gcc/pic32mx/4.8.3/../../../../pic32mx/lib/libc.a(_iob.o)
                0xa0000a9c                _sobuf
                0xa0000abc                _sibuf
                0xa0000adc                _outdone

.data           0xa0000ae0       0x28
 .data          0xa0000ae0       0x28 build/default/production/_ext/1871970537/drv_spi.o

.bss            0xa0000b08       0x20
 .bss           0xa0000b08       0x20 build/default/production/_ext/1360937237/orient.o

.data           0xa0000b28       0x18
 .data          0xa0000b28       0x18 build/default/production/_ext/1360937237/orient.o
                0xa0000b28                orienter_motor

._debug_exception
                0xbfc00480       0x2c
 ._debug_exception
                0xbfc00480       0x2c /opt/microchip/xc32/v1.44/bin/bin/../../lib/gcc/pic32mx/4.8.3/../../../../pic32mx/lib/debug-exception-return.o
                0xbfc00480                __DbgExecReturn

.text._vfprintf_cdnopsuxX
                0x9d000000      0xc8c
 .text._vfprintf_cdnopsuxX
                0x9d000000      0xc8c /opt/microchip/xc32/v1.44/bin/bin/../../lib/gcc/pic32mx/4.8.3/../../../../pic32mx/lib/libc.a(doprnt_cdnopsuxX.eo)
                0x9d000000                _vfprintf_cdnopuxX
                0x9d000000                _vfprintf_cdnopsuxX

.text.DRV_I2C_Tasks
                0x9d000c8c      0x9c8
 .text.DRV_I2C_Tasks
                0x9d000c8c      0x9c8 build/default/production/_ext/1022305019/drv_i2c.o
                0x9d000c8c                DRV_I2C_Tasks

.text           0x9d001654      0x8bc
 .text          0x9d001654      0x464 /opt/microchip/xc32/v1.44/bin/bin/../../lib/gcc/pic32mx/4.8.3/libgcc.a(_umoddi3.o)
                0x9d001654                __umoddi3
 .text          0x9d001ab8      0x458 /opt/microchip/xc32/v1.44/bin/bin/../../lib/gcc/pic32mx/4.8.3/libgcc.a(_udivdi3.o)
                0x9d001ab8                __udivdi3

.text.orienter_motor_check
                0x9d001f10      0x428
 .text.orienter_motor_check
                0x9d001f10      0x428 build/default/production/_ext/1360937237/orient.o
                0x9d001f10                orienter_motor_check

.text.DRV_SPI_ISRMasterRM8BitTasks
                0x9d002338      0x378
 .text.DRV_SPI_ISRMasterRM8BitTasks
                0x9d002338      0x378 build/default/production/_ext/977502197/drv_spi_tasks.o
                0x9d002338                DRV_SPI_ISRMasterRM8BitTasks

.text.DRV_I2C_Initialize
                0x9d0026b0      0x348
 .text.DRV_I2C_Initialize
                0x9d0026b0      0x348 build/default/production/_ext/1022305019/drv_i2c.o
                0x9d0026b0                DRV_I2C_Initialize

.rodata         0x9d0029f8      0x300
 .rodata        0x9d0029f8      0x300 build/default/production/ChrFont0.o
                0x9d0029f8                rgbOledFont0

.text.DRV_SPI_SetupHardware
                0x9d002cf8      0x27c
 .text.DRV_SPI_SetupHardware
                0x9d002cf8      0x27c build/default/production/_ext/977502197/drv_spi_api.o
                0x9d002cf8                DRV_SPI_SetupHardware

.text.DRV_SPI_Initialize
                0x9d002f74      0x27c
 .text.DRV_SPI_Initialize
                0x9d002f74      0x27c build/default/production/_ext/1871970537/drv_spi.o
                0x9d002f74                DRV_SPI_Initialize

.text.fpsubadd  0x9d0031f0      0x278
 .text.fpsubadd
                0x9d0031f0      0x278 /opt/microchip/xc32/v1.44/bin/bin/../../lib/gcc/pic32mx/4.8.3/../../../../pic32mx/lib/libm.a(fp32subadd.o)
                0x9d0031f0                __subsf3
                0x9d0031f0                fpsub
                0x9d0031f8                fpadd
                0x9d0031f8                __addsf3

.text.DRV_SPI_Open
                0x9d003468      0x260
 .text.DRV_SPI_Open
                0x9d003468      0x260 build/default/production/_ext/1871970537/drv_spi.o
                0x9d003468                DRV_SPI_Open

.text.fp32div   0x9d0036c8      0x230
 .text.fp32div  0x9d0036c8      0x230 /opt/microchip/xc32/v1.44/bin/bin/../../lib/gcc/pic32mx/4.8.3/../../../../pic32mx/lib/libm.a(fp32div.o)
                0x9d0036c8                __divsf3
                0x9d0036c8                fpdiv

.text.DRV_SPI_BufferAddWrite2
                0x9d0038f8      0x210
 .text.DRV_SPI_BufferAddWrite2
                0x9d0038f8      0x210 build/default/production/_ext/1871970537/drv_spi.o
                0x9d0038f8                DRV_SPI_BufferAddWrite2

.dinit          0x9d003b08      0x1f0
 .dinit         0x9d003b08      0x1f0 data_init

.text.board_test
                0x9d003cf8      0x1e4
 .text.board_test
                0x9d003cf8      0x1e4 build/default/production/_ext/1360937237/bioshield.o
                0x9d003cf8                board_test

.text.DRV_SPI_SYS_QUEUE_Initialize
                0x9d003edc      0x1d8
 .text.DRV_SPI_SYS_QUEUE_Initialize
                0x9d003edc      0x1d8 build/default/production/_ext/1805174553/drv_spi_sys_queue_fifo.o
                0x9d003edc                DRV_SPI_SYS_QUEUE_Initialize

.text._DRV_USART_HardwareSetup
                0x9d0040b4      0x1cc
 .text._DRV_USART_HardwareSetup
                0x9d0040b4      0x1cc build/default/production/_ext/1590698352/drv_usart.o
                0x9d0040b4                _DRV_USART_HardwareSetup

.text.fp32mul   0x9d004280      0x1bc
 .text.fp32mul  0x9d004280      0x1bc /opt/microchip/xc32/v1.44/bin/bin/../../lib/gcc/pic32mx/4.8.3/../../../../pic32mx/lib/libm.a(fp32mul.o)
                0x9d004280                __mulsf3
                0x9d004280                fpmul

.text.DRV_USART_Initialize
                0x9d00443c      0x19c
 .text.DRV_USART_Initialize
                0x9d00443c      0x19c build/default/production/_ext/1590698352/drv_usart.o
                0x9d00443c                DRV_USART_Initialize

.text.OledLineTo
                0x9d0045d8      0x164
 .text.OledLineTo
                0x9d0045d8      0x164 build/default/production/OledGrph.o
                0x9d0045d8                OledLineTo

.text.SYS_Initialize
                0x9d00473c      0x154
 .text.SYS_Initialize
                0x9d00473c      0x154 build/default/production/_ext/1688732426/system_init.o
                0x9d00473c                SYS_Initialize

.text.lp_filter
                0x9d004890      0x154
 .text.lp_filter
                0x9d004890      0x154 build/default/production/_ext/1360937237/orient.o
                0x9d004890                lp_filter

.text._IntHandlerDrvUsartInstance0
                0x9d0049e4      0x150
 .text._IntHandlerDrvUsartInstance0
                0x9d0049e4      0x150 build/default/production/_ext/1688732426/system_interrupt.o
                0x9d0049e4                _IntHandlerDrvUsartInstance0

.text.fputc     0x9d004b34      0x144
 .text.fputc    0x9d004b34      0x144 /opt/microchip/xc32/v1.44/bin/bin/../../lib/gcc/pic32mx/4.8.3/../../../../pic32mx/lib/libc.a(_fputc_simple.o)
                0x9d004b34                fputc

.text._IntHandlerSPIInstance0
                0x9d004c78      0x134
 .text._IntHandlerSPIInstance0
                0x9d004c78      0x134 build/default/production/_ext/1688732426/system_interrupt.o
                0x9d004c78                _IntHandlerSPIInstance0

.text._IntHandlerDrvI2CInstance0
                0x9d004dac      0x134
 .text._IntHandlerDrvI2CInstance0
                0x9d004dac      0x134 build/default/production/_ext/1688732426/system_interrupt.o
                0x9d004dac                _IntHandlerDrvI2CInstance0

.text._flsbuf   0x9d004ee0      0x12c
 .text._flsbuf  0x9d004ee0      0x12c /opt/microchip/xc32/v1.44/bin/bin/../../lib/gcc/pic32mx/4.8.3/../../../../pic32mx/lib/libc.a(_flsbuf_simple.o)
                0x9d004ee0                _flsbuf

.rodata         0x9d00500c      0x128
 .rodata        0x9d00500c      0x128 build/default/production/_ext/1688732426/system_exceptions.o

.text.DRV_SPI_SYS_QUEUE_CreateQueue
                0x9d005134      0x108
 .text.DRV_SPI_SYS_QUEUE_CreateQueue
                0x9d005134      0x108 build/default/production/_ext/1805174553/drv_spi_sys_queue_fifo.o
                0x9d005134                DRV_SPI_SYS_QUEUE_CreateQueue

.rodata         0x9d00523c      0x104
 .rodata        0x9d00523c      0x104 /opt/microchip/xc32/v1.44/bin/bin/../../lib/gcc/pic32mx/4.8.3/../../../../pic32mx/lib/libc.a(ctype.o)
                0x9d00523c                _ctype

.text.APP_Tasks
                0x9d005340       0xe8
 .text.APP_Tasks
                0x9d005340       0xe8 build/default/production/_ext/1360937237/app.o
                0x9d005340                APP_Tasks

.text.SYS_DEVCON_PerformanceConfig
                0x9d005428       0xe0
 .text.SYS_DEVCON_PerformanceConfig
                0x9d005428       0xe0 build/default/production/_ext/340578644/sys_devcon_pic32mx.o
                0x9d005428                SYS_DEVCON_PerformanceConfig

.text.general_exception
                0x9d005508       0xdc
 .text.general_exception
                0x9d005508       0xdc /opt/microchip/xc32/v1.44/bin/bin/../../lib/gcc/pic32mx/4.8.3/../../../../pic32mx/lib/libpic32.a(general-exception.o)
                0x9d005508                _general_exception_context

.text.DRV_SPI_ISRErrorTasks
                0x9d0055e4       0xd4
 .text.DRV_SPI_ISRErrorTasks
                0x9d0055e4       0xd4 build/default/production/_ext/1871970537/drv_spi.o
                0x9d0055e4                DRV_SPI_ISRErrorTasks

.text._mon_putc
                0x9d0056b8       0xd4
 .text._mon_putc
                0x9d0056b8       0xd4 /opt/microchip/xc32/v1.44/bin/bin/../../lib/gcc/pic32mx/4.8.3/../../../../pic32mx/lib/libpic32.a(_mon_putc.o)
                0x9d0056b8                _mon_putc

.rodata         0x9d005790       0xd0
 .rodata        0x9d005790       0xd0 /opt/microchip/xc32/v1.44/bin/bin/../../lib/gcc/pic32mx/4.8.3/../../../../pic32mx/lib/libc.a(doprnt_cdnopsuxX.eo)

.text.DRV_SPI_SYS_QUEUE_AllocElement
                0x9d005860       0xc0
 .text.DRV_SPI_SYS_QUEUE_AllocElement
                0x9d005860       0xc0 build/default/production/_ext/1805174553/drv_spi_sys_queue_fifo.o
                0x9d005860                DRV_SPI_SYS_QUEUE_AllocElement

.text.OledDevInit
                0x9d005920       0xb4
 .text.OledDevInit
                0x9d005920       0xb4 build/default/production/OledDriver.o
                0x9d005920                OledDevInit

.text.SYS_PORTS_Initialize
                0x9d0059d4       0xb0
 .text.SYS_PORTS_Initialize
                0x9d0059d4       0xb0 build/default/production/_ext/822048611/sys_ports_static.o
                0x9d0059d4                SYS_PORTS_Initialize

.text.OledUpdate
                0x9d005a84       0xac
 .text.OledUpdate
                0x9d005a84       0xac build/default/production/OledDriver.o
                0x9d005a84                OledUpdate

.text           0x9d005b30       0xa8
 .text          0x9d005b30       0xa8 /opt/microchip/xc32/v1.44/bin/bin/../../lib/gcc/pic32mx/4.8.3/../../../../pic32mx/lib/libpic32.a(memset.o)
                0x9d005b30                memset

.text.DRV_USART_TasksTransmit
                0x9d005bd8       0xa4
 .text.DRV_USART_TasksTransmit
                0x9d005bd8       0xa4 build/default/production/_ext/1590698352/drv_usart.o
                0x9d005bd8                DRV_USART_TasksTransmit

.text.DRV_USART_TasksReceive
                0x9d005c7c       0xa4
 .text.DRV_USART_TasksReceive
                0x9d005c7c       0xa4 build/default/production/_ext/1590698352/drv_usart.o
                0x9d005c7c                DRV_USART_TasksReceive

.text.DRV_USART_TasksError
                0x9d005d20       0xa4
 .text.DRV_USART_TasksError
                0x9d005d20       0xa4 build/default/production/_ext/1590698352/drv_usart.o
                0x9d005d20                DRV_USART_TasksError

.text._DRV_I2C_QueuePop
                0x9d005dc4       0x9c
 .text._DRV_I2C_QueuePop
                0x9d005dc4       0x9c build/default/production/_ext/1022305019/drv_i2c.o
                0x9d005dc4                _DRV_I2C_QueuePop

.text._DRV_USART_ErrorConditionClear
                0x9d005e60       0x9c
 .text._DRV_USART_ErrorConditionClear
                0x9d005e60       0x9c build/default/production/_ext/1590698352/drv_usart.o
                0x9d005e60                _DRV_USART_ErrorConditionClear

.text.write     0x9d005efc       0x9c
 .text.write    0x9d005efc       0x9c /opt/microchip/xc32/v1.44/bin/bin/../../lib/gcc/pic32mx/4.8.3/../../../../pic32mx/lib/libpic32.a(write.o)
                0x9d005efc                write

.text.DRV_SPI_MasterRMSend8BitISR
                0x9d005f98       0x94
 .text.DRV_SPI_MasterRMSend8BitISR
                0x9d005f98       0x94 build/default/production/_ext/977502197/drv_spi_master_rm_tasks.o
                0x9d005f98                DRV_SPI_MasterRMSend8BitISR

.rodata         0x9d00602c       0x94
 .rodata        0x9d00602c       0x94 build/default/production/_ext/1688732426/system_init.o
                0x9d00602c                drvUsart0InitData
                0x9d006074                drvI2C0InitData

.text.OledDvrInit
                0x9d0060c0       0x90
 .text.OledDvrInit
                0x9d0060c0       0x90 build/default/production/OledDriver.o
                0x9d0060c0                OledDvrInit

.text.DRV_OC0_Initialize
                0x9d006150       0x8c
 .text.DRV_OC0_Initialize
                0x9d006150       0x8c build/default/production/_ext/1047219354/drv_oc_static.o
                0x9d006150                DRV_OC0_Initialize

.text.DRV_OC1_Initialize
                0x9d0061dc       0x8c
 .text.DRV_OC1_Initialize
                0x9d0061dc       0x8c build/default/production/_ext/1047219354/drv_oc_static.o
                0x9d0061dc                DRV_OC1_Initialize

.text.OledSetDrawMode
                0x9d006268       0x88
 .text.OledSetDrawMode
                0x9d006268       0x88 build/default/production/OledGrph.o
                0x9d006268                OledSetDrawMode

.text.IntHandlerDrvTmrInstance0
                0x9d0062f0       0x88
 .text.IntHandlerDrvTmrInstance0
                0x9d0062f0       0x88 build/default/production/_ext/1688732426/system_interrupt.o
                0x9d0062f0                IntHandlerDrvTmrInstance0

.text._IntHandlerDrvOCInstance0
                0x9d006378       0x88
 .text._IntHandlerDrvOCInstance0
                0x9d006378       0x88 build/default/production/_ext/1688732426/system_interrupt.o
                0x9d006378                _IntHandlerDrvOCInstance0

.text._IntHandlerDrvOCInstance1
                0x9d006400       0x88
 .text._IntHandlerDrvOCInstance1
                0x9d006400       0x88 build/default/production/_ext/1688732426/system_interrupt.o
                0x9d006400                _IntHandlerDrvOCInstance1

.text._DRV_USART_ByteTransmitTasks
                0x9d006488       0x88
 .text._DRV_USART_ByteTransmitTasks
                0x9d006488       0x88 build/default/production/_ext/1590698352/drv_usart.o
                0x9d006488                _DRV_USART_ByteTransmitTasks

.text._DRV_USART_ByteErrorTasks
                0x9d006510       0x88
 .text._DRV_USART_ByteErrorTasks
                0x9d006510       0x88 build/default/production/_ext/1590698352/drv_usart.o
                0x9d006510                _DRV_USART_ByteErrorTasks

.text.OledDrawRect
                0x9d006598       0x84
 .text.OledDrawRect
                0x9d006598       0x84 build/default/production/OledGrph.o
                0x9d006598                OledDrawRect

.text.OledHostInit
                0x9d00661c       0x80
 .text.OledHostInit
                0x9d00661c       0x80 build/default/production/OledDriver.o
                0x9d00661c                OledHostInit

.text._DRV_SPI_SYS_QUEUE_LockQueue
                0x9d00669c       0x80
 .text._DRV_SPI_SYS_QUEUE_LockQueue
                0x9d00669c       0x80 build/default/production/_ext/1805174553/drv_spi_sys_queue_fifo.o
                0x9d00669c                _DRV_SPI_SYS_QUEUE_LockQueue

.text.fptoul    0x9d00671c       0x7c
 .text.fptoul   0x9d00671c       0x7c /opt/microchip/xc32/v1.44/bin/bin/../../lib/gcc/pic32mx/4.8.3/../../../../pic32mx/lib/libm.a(fptoul.o)
                0x9d00671c                fptoui
                0x9d00671c                __fixunssfsi
                0x9d00671c                fptoul

.text.OledMoveTo
                0x9d006798       0x74
 .text.OledMoveTo
                0x9d006798       0x74 build/default/production/OledGrph.o
                0x9d006798                OledMoveTo

.text.DRV_SPI_MasterRMReceive8BitISR
                0x9d00680c       0x74
 .text.DRV_SPI_MasterRMReceive8BitISR
                0x9d00680c       0x74 build/default/production/_ext/977502197/drv_spi_master_rm_tasks.o
                0x9d00680c                DRV_SPI_MasterRMReceive8BitISR

.text.DRV_SPI_SYS_QUEUE_FreeElement
                0x9d006880       0x74
 .text.DRV_SPI_SYS_QUEUE_FreeElement
                0x9d006880       0x74 build/default/production/_ext/1805174553/drv_spi_sys_queue_fifo.o
                0x9d006880                DRV_SPI_SYS_QUEUE_FreeElement

.text.DRV_TMR0_Initialize
                0x9d0068f4       0x70
 .text.DRV_TMR0_Initialize
                0x9d0068f4       0x70 build/default/production/_ext/1407244131/drv_tmr_static.o
                0x9d0068f4                DRV_TMR0_Initialize

.text._DRV_USART_ByteReceiveTasks
                0x9d006964       0x70
 .text._DRV_USART_ByteReceiveTasks
                0x9d006964       0x70 build/default/production/_ext/1590698352/drv_usart.o
                0x9d006964                _DRV_USART_ByteReceiveTasks

.text.OledDrawGlyph
                0x9d0069d4       0x68
 .text.OledDrawGlyph
                0x9d0069d4       0x68 build/default/production/OledChar.o
                0x9d0069d4                OledDrawGlyph

.text.DRV_SPI_SetVTable
                0x9d006a3c       0x68
 .text.DRV_SPI_SetVTable
                0x9d006a3c       0x68 build/default/production/_ext/977502197/drv_spi_api.o
                0x9d006a3c                DRV_SPI_SetVTable

.text._DRV_SPI_SYS_QUEUE_UnlockQueue
                0x9d006aa4       0x68
 .text._DRV_SPI_SYS_QUEUE_UnlockQueue
                0x9d006aa4       0x68 build/default/production/_ext/1805174553/drv_spi_sys_queue_fifo.o
                0x9d006aa4                _DRV_SPI_SYS_QUEUE_UnlockQueue

.text._sprintf_cdnopsuxX
                0x9d006b0c       0x68
 .text._sprintf_cdnopsuxX
                0x9d006b0c       0x68 /opt/microchip/xc32/v1.44/bin/bin/../../lib/gcc/pic32mx/4.8.3/../../../../pic32mx/lib/libc.a(sprintf_cdnopsuxX.eo)
                0x9d006b0c                _sprintf_cdnopuxX
                0x9d006b0c                _sprintf_cdnopsuxX

.text.OledAdvanceCursor
                0x9d006b74       0x60
 .text.OledAdvanceCursor
                0x9d006b74       0x60 build/default/production/OledChar.o
                0x9d006b74                OledAdvanceCursor

.text.DRV_SPI_SYS_QUEUE_AllocElementLock
                0x9d006bd4       0x60
 .text.DRV_SPI_SYS_QUEUE_AllocElementLock
                0x9d006bd4       0x60 build/default/production/_ext/1805174553/drv_spi_sys_queue_fifo.o
                0x9d006bd4                DRV_SPI_SYS_QUEUE_AllocElementLock

.text.DRV_SPI_SYS_QUEUE_EnqueueLock
                0x9d006c34       0x60
 .text.DRV_SPI_SYS_QUEUE_EnqueueLock
                0x9d006c34       0x60 build/default/production/_ext/1805174553/drv_spi_sys_queue_fifo.o
                0x9d006c34                DRV_SPI_SYS_QUEUE_EnqueueLock

.text.sitofp    0x9d006c94       0x60
 .text.sitofp   0x9d006c94       0x60 /opt/microchip/xc32/v1.44/bin/bin/../../lib/gcc/pic32mx/4.8.3/../../../../pic32mx/lib/libm.a(sitofp.o)
                0x9d006c94                sitofp
                0x9d006c94                __floatsisf
                0x9d006c94                litofp

.text.SYS_CLK_Initialize
                0x9d006cf4       0x5c
 .text.SYS_CLK_Initialize
                0x9d006cf4       0x5c build/default/production/_ext/639803181/sys_clk.o
                0x9d006cf4                SYS_CLK_Initialize

.text.OledPutString
                0x9d006d50       0x58
 .text.OledPutString
                0x9d006d50       0x58 build/default/production/OledChar.o
                0x9d006d50                OledPutString

.text.SYS_DEVCON_SystemUnlock
                0x9d006da8       0x58
 .text.SYS_DEVCON_SystemUnlock
                0x9d006da8       0x58 build/default/production/_ext/340578644/sys_devcon.o
                0x9d006da8                SYS_DEVCON_SystemUnlock

.text.DRV_SPI_SYS_QUEUE_Dequeue
                0x9d006e00       0x58
 .text.DRV_SPI_SYS_QUEUE_Dequeue
                0x9d006e00       0x58 build/default/production/_ext/1805174553/drv_spi_sys_queue_fifo.o
                0x9d006e00                DRV_SPI_SYS_QUEUE_Dequeue

.text.main_entry
                0x9d006e58       0x54
 .text.main_entry
                0x9d006e58       0x54 /opt/microchip/xc32/v1.44/bin/bin/../../lib/gcc/pic32mx/4.8.3/../../../../pic32mx/lib/./proc/32MX320F128H/crt0_mips32r2.o
                0x9d006e8c                __crt0_exit

.text.SYS_INT_SourceDisable
                0x9d006eac       0x54
 .text.SYS_INT_SourceDisable
                0x9d006eac       0x54 build/default/production/_ext/2147425457/sys_int_pic32.o
                0x9d006eac                SYS_INT_SourceDisable

.text.OledSetCursor
                0x9d006f00       0x50
 .text.OledSetCursor
                0x9d006f00       0x50 build/default/production/OledChar.o
                0x9d006f00                OledSetCursor

.text.OledDrawPixel
                0x9d006f50       0x4c
 .text.OledDrawPixel
                0x9d006f50       0x4c build/default/production/OledGrph.o
                0x9d006f50                OledDrawPixel

.rodata         0x9d006f9c       0x4c
 .rodata        0x9d006f9c       0x4c build/default/production/_ext/1360937237/orient.o

.text           0x9d006fe8       0x4c
 .text          0x9d006fe8       0x4c /opt/microchip/xc32/v1.44/bin/bin/../../lib/gcc/pic32mx/4.8.3/libgcc.a(floatunsisf.o)
                0x9d006fe8                __floatunsisf

.text.SYS_DEVCON_SystemLock
                0x9d007034       0x48
 .text.SYS_DEVCON_SystemLock
                0x9d007034       0x48 build/default/production/_ext/340578644/sys_devcon.o
                0x9d007034                SYS_DEVCON_SystemLock

.text._bootstrap_exception_handler
                0x9d00707c       0x48
 .text._bootstrap_exception_handler
                0x9d00707c       0x48 /opt/microchip/xc32/v1.44/bin/bin/../../lib/gcc/pic32mx/4.8.3/../../../../pic32mx/lib/libpic32.a(default-bootstrap-exception-handler.o)
                0x9d00707c                _bootstrap_exception_handler

.vector_default
                0x9d0070c4       0x48
 .vector_default
                0x9d0070c4       0x48 /opt/microchip/xc32/v1.44/bin/bin/../../lib/gcc/pic32mx/4.8.3/../../../../pic32mx/lib/libpic32.a(defaultinterrupt.o)
                0x9d0070c4                _DefaultInterrupt

.rodata         0x9d00710c       0x44
 .rodata        0x9d00710c       0x44 build/default/production/_ext/1360937237/bioshield.o

.text           0x9d007150       0x44
 .text          0x9d007150       0x44 /opt/microchip/xc32/v1.44/bin/bin/../../lib/gcc/pic32mx/4.8.3/../../../../pic32mx/lib/pic32_software_reset.o
                0x9d007150                __pic32_software_reset

.rodata         0x9d007194       0x40
 .rodata        0x9d007194       0x40 build/default/production/FillPat.o
                0x9d007194                rgbFillPat

.text.OledMoveUp
                0x9d0071d4       0x40
 .text.OledMoveUp
                0x9d0071d4       0x40 build/default/production/OledGrph.o
                0x9d0071d4                OledMoveUp

.text.OledMoveDown
                0x9d007214       0x40
 .text.OledMoveDown
                0x9d007214       0x40 build/default/production/OledGrph.o
                0x9d007214                OledMoveDown

.text._general_exception_handler
                0x9d007254       0x40
 .text._general_exception_handler
                0x9d007254       0x40 build/default/production/_ext/1688732426/system_exceptions.o
                0x9d007254                _general_exception_handler

.text.DRV_SPI_SYS_QUEUE_Enqueue
                0x9d007294       0x40
 .text.DRV_SPI_SYS_QUEUE_Enqueue
                0x9d007294       0x40 build/default/production/_ext/1805174553/drv_spi_sys_queue_fifo.o
                0x9d007294                DRV_SPI_SYS_QUEUE_Enqueue

.text._DRV_I2C_IsQueueEmpty
                0x9d0072d4       0x3c
 .text._DRV_I2C_IsQueueEmpty
                0x9d0072d4       0x3c build/default/production/_ext/1022305019/drv_i2c.o
                0x9d0072d4                _DRV_I2C_IsQueueEmpty

.text.DRV_TMR0_Start
                0x9d007310       0x38
 .text.DRV_TMR0_Start
                0x9d007310       0x38 build/default/production/_ext/1407244131/drv_tmr_static.o
                0x9d007310                DRV_TMR0_Start

.text.BSP_DelayUs
                0x9d007348       0x34
 .text.BSP_DelayUs
                0x9d007348       0x34 build/default/production/OledDriver.o
                0x9d007348                BSP_DelayUs

.text.OledInit  0x9d00737c       0x34
 .text.OledInit
                0x9d00737c       0x34 build/default/production/OledDriver.o
                0x9d00737c                OledInit

.text._DRV_I2C_Advance_Queue
                0x9d0073b0       0x30
 .text._DRV_I2C_Advance_Queue
                0x9d0073b0       0x30 build/default/production/_ext/1022305019/drv_i2c.o
                0x9d0073b0                _DRV_I2C_Advance_Queue

.text.OledMoveRight
                0x9d0073e0       0x2c
 .text.OledMoveRight
                0x9d0073e0       0x2c build/default/production/OledGrph.o
                0x9d0073e0                OledMoveRight

.text.OledPutBuffer
                0x9d00740c       0x28
 .text.OledPutBuffer
                0x9d00740c       0x28 build/default/production/OledDriver.o
                0x9d00740c                OledPutBuffer

.text.OledMoveLeft
                0x9d007434       0x28
 .text.OledMoveLeft
                0x9d007434       0x28 build/default/production/OledGrph.o
                0x9d007434                OledMoveLeft

.text._DRV_SPI_RootDriverDeinitialization
                0x9d00745c       0x28
 .text._DRV_SPI_RootDriverDeinitialization
                0x9d00745c       0x28 build/default/production/_ext/1871970537/drv_spi.o

.text.OledClearBuffer
                0x9d007484       0x24
 .text.OledClearBuffer
                0x9d007484       0x24 build/default/production/OledDriver.o
                0x9d007484                OledClearBuffer

.text.OledClear
                0x9d0074a8       0x24
 .text.OledClear
                0x9d0074a8       0x24 build/default/production/OledDriver.o
                0x9d0074a8                OledClear

.text.DRV_SPI_BufferAddWrite
                0x9d0074cc       0x24
 .text.DRV_SPI_BufferAddWrite
                0x9d0074cc       0x24 build/default/production/_ext/1871970537/drv_spi.o
                0x9d0074cc                DRV_SPI_BufferAddWrite

.text.SYS_CLK_PeripheralFrequencyGet
                0x9d0074f0       0x20
 .text.SYS_CLK_PeripheralFrequencyGet
                0x9d0074f0       0x20 build/default/production/_ext/639803181/sys_clk.o
                0x9d0074f0                SYS_CLK_PeripheralFrequencyGet

.text.main      0x9d007510       0x20
 .text.main     0x9d007510       0x20 build/default/production/_ext/1360937237/main.o
                0x9d007510                main

.text.DRV_SPI_Tasks
                0x9d007530       0x20
 .text.DRV_SPI_Tasks
                0x9d007530       0x20 build/default/production/_ext/1871970537/drv_spi.o
                0x9d007530                DRV_SPI_Tasks

.text.SYS_Tasks
                0x9d007550       0x1c
 .text.SYS_Tasks
                0x9d007550       0x1c build/default/production/_ext/1688732426/system_tasks.o
                0x9d007550                SYS_Tasks

.text.APP_Initialize
                0x9d00756c       0x1c
 .text.APP_Initialize
                0x9d00756c       0x1c build/default/production/_ext/1360937237/app.o
                0x9d00756c                APP_Initialize

.text.BasicIO_Initialize
                0x9d007588       0x1c
 .text.BasicIO_Initialize
                0x9d007588       0x1c build/default/production/_ext/1360937237/bioshield.o
                0x9d007588                BasicIO_Initialize

.text.OledClampXco
                0x9d0075a4       0x18
 .text.OledClampXco
                0x9d0075a4       0x18 build/default/production/OledGrph.o
                0x9d0075a4                OledClampXco

.text.OledClampYco
                0x9d0075bc       0x18
 .text.OledClampYco
                0x9d0075bc       0x18 build/default/production/OledGrph.o
                0x9d0075bc                OledClampYco

.text.SYS_DEVCON_JTAGDisable
                0x9d0075d4       0x18
 .text.SYS_DEVCON_JTAGDisable
                0x9d0075d4       0x18 build/default/production/_ext/340578644/sys_devcon.o
                0x9d0075d4                SYS_DEVCON_JTAGDisable

.text           0x9d0075ec       0x18
 .text          0x9d0075ec       0x18 /opt/microchip/xc32/v1.44/bin/bin/../../lib/gcc/pic32mx/4.8.3/../../../../pic32mx/lib/libpic32.a(default-nmi-handler.o)
                0x9d0075ec                _nmi_handler

.rodata         0x9d007604       0x14
 .rodata        0x9d007604       0x14 build/default/production/OledDriver.o

.text.OledRopSet
                0x9d007618       0x14
 .text.OledRopSet
                0x9d007618       0x14 build/default/production/OledGrph.o
                0x9d007618                OledRopSet

.text.DRV_OC0_Start
                0x9d00762c       0x14
 .text.DRV_OC0_Start
                0x9d00762c       0x14 build/default/production/_ext/1047219354/drv_oc_static.o
                0x9d00762c                DRV_OC0_Start

.text.DRV_OC0_PulseWidthSet
                0x9d007640       0x14
 .text.DRV_OC0_PulseWidthSet
                0x9d007640       0x14 build/default/production/_ext/1047219354/drv_oc_static.o
                0x9d007640                DRV_OC0_PulseWidthSet

.text.DRV_OC1_Start
                0x9d007654       0x14
 .text.DRV_OC1_Start
                0x9d007654       0x14 build/default/production/_ext/1047219354/drv_oc_static.o
                0x9d007654                DRV_OC1_Start

.text.DRV_OC1_PulseWidthSet
                0x9d007668       0x14
 .text.DRV_OC1_PulseWidthSet
                0x9d007668       0x14 build/default/production/_ext/1047219354/drv_oc_static.o
                0x9d007668                DRV_OC1_PulseWidthSet

.text.DRV_TMR0_PeriodValueGet
                0x9d00767c       0x14
 .text.DRV_TMR0_PeriodValueGet
                0x9d00767c       0x14 build/default/production/_ext/1407244131/drv_tmr_static.o
                0x9d00767c                DRV_TMR0_PeriodValueGet

.text.SYS_DEVCON_Initialize
                0x9d007690       0x14
 .text.SYS_DEVCON_Initialize
                0x9d007690       0x14 build/default/production/_ext/340578644/sys_devcon.o
                0x9d007690                SYS_DEVCON_Initialize

.text.SYS_INT_Initialize
                0x9d0076a4       0x14
 .text.SYS_INT_Initialize
                0x9d0076a4       0x14 build/default/production/_ext/2147425457/sys_int_pic32.o
                0x9d0076a4                SYS_INT_Initialize

.text.OledRopOr
                0x9d0076b8        0xc
 .text.OledRopOr
                0x9d0076b8        0xc build/default/production/OledGrph.o
                0x9d0076b8                OledRopOr

.text.OledRopAnd
                0x9d0076c4        0xc
 .text.OledRopAnd
                0x9d0076c4        0xc build/default/production/OledGrph.o
                0x9d0076c4                OledRopAnd

.text.OledRopXor
                0x9d0076d0        0xc
 .text.OledRopXor
                0x9d0076d0        0xc build/default/production/OledGrph.o
                0x9d0076d0                OledRopXor

.text.SYS_CLK_SystemFrequencyGet
                0x9d0076dc        0xc
 .text.SYS_CLK_SystemFrequencyGet
                0x9d0076dc        0xc build/default/production/_ext/639803181/sys_clk.o
                0x9d0076dc                SYS_CLK_SystemFrequencyGet

.text._SYS_CLK_PeripheralClockRead
                0x9d0076e8        0xc
 .text._SYS_CLK_PeripheralClockRead
                0x9d0076e8        0xc build/default/production/_ext/639803181/sys_clk_pic32mx.o
                0x9d0076e8                _SYS_CLK_PeripheralClockRead

.text.DRV_SPI_SYS_QUEUE_IsEmpty
                0x9d0076f4        0xc
 .text.DRV_SPI_SYS_QUEUE_IsEmpty
                0x9d0076f4        0xc build/default/production/_ext/1805174553/drv_spi_sys_queue_fifo.o
                0x9d0076f4                DRV_SPI_SYS_QUEUE_IsEmpty

.text.DRV_SPI_SYS_QUEUE_Deinitialize
                0x9d007700        0x8
 .text.DRV_SPI_SYS_QUEUE_Deinitialize
                0x9d007700        0x8 build/default/production/_ext/1805174553/drv_spi_sys_queue_fifo.o
                0x9d007700                DRV_SPI_SYS_QUEUE_Deinitialize

.text._on_reset
                0x9d007708        0x8
 .text._on_reset
                0x9d007708        0x8 /opt/microchip/xc32/v1.44/bin/bin/../../lib/gcc/pic32mx/4.8.3/../../../../pic32mx/lib/libpic32.a(default-on-reset.o)
                0x9d007708                _on_reset

.text._on_bootstrap
                0x9d007710        0x8
 .text._on_bootstrap
                0x9d007710        0x8 /opt/microchip/xc32/v1.44/bin/bin/../../lib/gcc/pic32mx/4.8.3/../../../../pic32mx/lib/libpic32.a(default-on-bootstrap.o)
                0x9d007710                _on_bootstrap
